
MicroSDAM16.elf:     file format elf32-avr

Sections:
Idx Name          Size      VMA       LMA       File off  Algn
  0 .text         00001dd0  00000000  00000000  00000094  2**1
                  CONTENTS, ALLOC, LOAD, READONLY, CODE
  1 .data         00000072  00800060  00001dd0  00001e64  2**0
                  CONTENTS, ALLOC, LOAD, DATA
  2 .bss          00000246  008000d2  008000d2  00001ed6  2**0
                  ALLOC
  3 .comment      00000030  00000000  00000000  00001ed6  2**0
                  CONTENTS, READONLY
  4 .note.gnu.avr.deviceinfo 0000003c  00000000  00000000  00001f08  2**2
                  CONTENTS, READONLY
  5 .debug_aranges 00000358  00000000  00000000  00001f44  2**0
                  CONTENTS, READONLY, DEBUGGING
  6 .debug_info   00004e27  00000000  00000000  0000229c  2**0
                  CONTENTS, READONLY, DEBUGGING
  7 .debug_abbrev 000009ca  00000000  00000000  000070c3  2**0
                  CONTENTS, READONLY, DEBUGGING
  8 .debug_line   00002a22  00000000  00000000  00007a8d  2**0
                  CONTENTS, READONLY, DEBUGGING
  9 .debug_frame  00000ff4  00000000  00000000  0000a4b0  2**2
                  CONTENTS, READONLY, DEBUGGING
 10 .debug_str    00000d52  00000000  00000000  0000b4a4  2**0
                  CONTENTS, READONLY, DEBUGGING
 11 .debug_loc    00005aa9  00000000  00000000  0000c1f6  2**0
                  CONTENTS, READONLY, DEBUGGING
 12 .debug_ranges 00000408  00000000  00000000  00011c9f  2**0
                  CONTENTS, READONLY, DEBUGGING

Disassembly of section .text:

00000000 <__vectors>:
       0:	0c 94 2a 00 	jmp	0x54	; 0x54 <__ctors_end>
       4:	0c 94 47 00 	jmp	0x8e	; 0x8e <__bad_interrupt>
       8:	0c 94 47 00 	jmp	0x8e	; 0x8e <__bad_interrupt>
       c:	0c 94 49 00 	jmp	0x92	; 0x92 <__vector_3>
      10:	0c 94 47 00 	jmp	0x8e	; 0x8e <__bad_interrupt>
      14:	0c 94 47 00 	jmp	0x8e	; 0x8e <__bad_interrupt>
      18:	0c 94 47 00 	jmp	0x8e	; 0x8e <__bad_interrupt>
      1c:	0c 94 47 00 	jmp	0x8e	; 0x8e <__bad_interrupt>
      20:	0c 94 47 00 	jmp	0x8e	; 0x8e <__bad_interrupt>
      24:	0c 94 47 00 	jmp	0x8e	; 0x8e <__bad_interrupt>
      28:	0c 94 47 00 	jmp	0x8e	; 0x8e <__bad_interrupt>
      2c:	0c 94 47 00 	jmp	0x8e	; 0x8e <__bad_interrupt>
      30:	0c 94 47 00 	jmp	0x8e	; 0x8e <__bad_interrupt>
      34:	0c 94 47 00 	jmp	0x8e	; 0x8e <__bad_interrupt>
      38:	0c 94 47 00 	jmp	0x8e	; 0x8e <__bad_interrupt>
      3c:	0c 94 47 00 	jmp	0x8e	; 0x8e <__bad_interrupt>
      40:	0c 94 47 00 	jmp	0x8e	; 0x8e <__bad_interrupt>
      44:	0c 94 47 00 	jmp	0x8e	; 0x8e <__bad_interrupt>
      48:	0c 94 47 00 	jmp	0x8e	; 0x8e <__bad_interrupt>
      4c:	0c 94 47 00 	jmp	0x8e	; 0x8e <__bad_interrupt>
      50:	0c 94 47 00 	jmp	0x8e	; 0x8e <__bad_interrupt>

00000054 <__ctors_end>:
      54:	11 24       	eor	r1, r1
      56:	1f be       	out	0x3f, r1	; 63
      58:	cf e5       	ldi	r28, 0x5F	; 95
      5a:	d4 e0       	ldi	r29, 0x04	; 4
      5c:	de bf       	out	0x3e, r29	; 62
      5e:	cd bf       	out	0x3d, r28	; 61

00000060 <__do_copy_data>:
      60:	10 e0       	ldi	r17, 0x00	; 0
      62:	a0 e6       	ldi	r26, 0x60	; 96
      64:	b0 e0       	ldi	r27, 0x00	; 0
      66:	e0 ed       	ldi	r30, 0xD0	; 208
      68:	fd e1       	ldi	r31, 0x1D	; 29
      6a:	02 c0       	rjmp	.+4      	; 0x70 <__do_copy_data+0x10>
      6c:	05 90       	lpm	r0, Z+
      6e:	0d 92       	st	X+, r0
      70:	a2 3d       	cpi	r26, 0xD2	; 210
      72:	b1 07       	cpc	r27, r17
      74:	d9 f7       	brne	.-10     	; 0x6c <__do_copy_data+0xc>

00000076 <__do_clear_bss>:
      76:	23 e0       	ldi	r18, 0x03	; 3
      78:	a2 ed       	ldi	r26, 0xD2	; 210
      7a:	b0 e0       	ldi	r27, 0x00	; 0
      7c:	01 c0       	rjmp	.+2      	; 0x80 <.do_clear_bss_start>

0000007e <.do_clear_bss_loop>:
      7e:	1d 92       	st	X+, r1

00000080 <.do_clear_bss_start>:
      80:	a8 31       	cpi	r26, 0x18	; 24
      82:	b2 07       	cpc	r27, r18
      84:	e1 f7       	brne	.-8      	; 0x7e <.do_clear_bss_loop>
      86:	0e 94 7c 0d 	call	0x1af8	; 0x1af8 <main>
      8a:	0c 94 e6 0e 	jmp	0x1dcc	; 0x1dcc <_exit>

0000008e <__bad_interrupt>:
      8e:	0c 94 00 00 	jmp	0	; 0x0 <__vectors>

00000092 <__vector_3>:
SSD1306_Byte(Xpos,page,SB,IA[i]);

Xpos++;

}
      92:	1f 92       	push	r1
      94:	0f 92       	push	r0
      96:	0f b6       	in	r0, 0x3f	; 63
      98:	0f 92       	push	r0
      9a:	11 24       	eor	r1, r1
      9c:	8f 93       	push	r24
      9e:	82 b3       	in	r24, 0x12	; 18
      a0:	80 58       	subi	r24, 0x80	; 128
      a2:	82 bb       	out	0x12, r24	; 18
      a4:	8f 91       	pop	r24
      a6:	0f 90       	pop	r0
      a8:	0f be       	out	0x3f, r0	; 63
      aa:	0f 90       	pop	r0
      ac:	1f 90       	pop	r1
      ae:	18 95       	reti

000000b0 <USART_init>:
      b0:	cf 92       	push	r12
      b2:	df 92       	push	r13
      b4:	ef 92       	push	r14
      b6:	ff 92       	push	r15
      b8:	fc 01       	movw	r30, r24
      ba:	20 93 d6 00 	sts	0x00D6, r18	; 0x8000d6 <BAUD>
      be:	30 93 d7 00 	sts	0x00D7, r19	; 0x8000d7 <BAUD+0x1>
      c2:	40 93 d8 00 	sts	0x00D8, r20	; 0x8000d8 <BAUD+0x2>
      c6:	50 93 d9 00 	sts	0x00D9, r21	; 0x8000d9 <BAUD+0x3>
      ca:	9a b1       	in	r25, 0x0a	; 10
      cc:	98 69       	ori	r25, 0x98	; 152
      ce:	9a b9       	out	0x0a, r25	; 10
      d0:	e1 30       	cpi	r30, 0x01	; 1
      d2:	f1 05       	cpc	r31, r1
      d4:	61 f0       	breq	.+24     	; 0xee <USART_init+0x3e>
      d6:	e2 30       	cpi	r30, 0x02	; 2
      d8:	f1 05       	cpc	r31, r1
      da:	69 f0       	breq	.+26     	; 0xf6 <USART_init+0x46>
      dc:	ef 2b       	or	r30, r31
      de:	71 f4       	brne	.+28     	; 0xfc <USART_init+0x4c>
      e0:	80 b5       	in	r24, 0x20	; 32
      e2:	8f 7e       	andi	r24, 0xEF	; 239
      e4:	80 bd       	out	0x20, r24	; 32
      e6:	80 b5       	in	r24, 0x20	; 32
      e8:	8f 7d       	andi	r24, 0xDF	; 223
      ea:	80 bd       	out	0x20, r24	; 32
      ec:	07 c0       	rjmp	.+14     	; 0xfc <USART_init+0x4c>
      ee:	80 b5       	in	r24, 0x20	; 32
      f0:	80 63       	ori	r24, 0x30	; 48
      f2:	80 bd       	out	0x20, r24	; 32
      f4:	03 c0       	rjmp	.+6      	; 0xfc <USART_init+0x4c>
      f6:	80 b5       	in	r24, 0x20	; 32
      f8:	80 62       	ori	r24, 0x20	; 32
      fa:	80 bd       	out	0x20, r24	; 32
      fc:	67 30       	cpi	r22, 0x07	; 7
      fe:	71 05       	cpc	r23, r1
     100:	e9 f0       	breq	.+58     	; 0x13c <USART_init+0x8c>
     102:	3c f4       	brge	.+14     	; 0x112 <USART_init+0x62>
     104:	65 30       	cpi	r22, 0x05	; 5
     106:	71 05       	cpc	r23, r1
     108:	59 f0       	breq	.+22     	; 0x120 <USART_init+0x70>
     10a:	66 30       	cpi	r22, 0x06	; 6
     10c:	71 05       	cpc	r23, r1
     10e:	91 f0       	breq	.+36     	; 0x134 <USART_init+0x84>
     110:	23 c0       	rjmp	.+70     	; 0x158 <USART_init+0xa8>
     112:	68 30       	cpi	r22, 0x08	; 8
     114:	71 05       	cpc	r23, r1
     116:	b1 f0       	breq	.+44     	; 0x144 <USART_init+0x94>
     118:	69 30       	cpi	r22, 0x09	; 9
     11a:	71 05       	cpc	r23, r1
     11c:	d1 f0       	breq	.+52     	; 0x152 <USART_init+0xa2>
     11e:	1c c0       	rjmp	.+56     	; 0x158 <USART_init+0xa8>
     120:	80 b5       	in	r24, 0x20	; 32
     122:	8d 7f       	andi	r24, 0xFD	; 253
     124:	80 bd       	out	0x20, r24	; 32
     126:	80 b5       	in	r24, 0x20	; 32
     128:	8b 7f       	andi	r24, 0xFB	; 251
     12a:	80 bd       	out	0x20, r24	; 32
     12c:	80 b5       	in	r24, 0x20	; 32
     12e:	8b 7f       	andi	r24, 0xFB	; 251
     130:	80 bd       	out	0x20, r24	; 32
     132:	12 c0       	rjmp	.+36     	; 0x158 <USART_init+0xa8>
     134:	80 b5       	in	r24, 0x20	; 32
     136:	82 60       	ori	r24, 0x02	; 2
     138:	80 bd       	out	0x20, r24	; 32
     13a:	0e c0       	rjmp	.+28     	; 0x158 <USART_init+0xa8>
     13c:	80 b5       	in	r24, 0x20	; 32
     13e:	84 60       	ori	r24, 0x04	; 4
     140:	80 bd       	out	0x20, r24	; 32
     142:	0a c0       	rjmp	.+20     	; 0x158 <USART_init+0xa8>
     144:	80 b5       	in	r24, 0x20	; 32
     146:	84 60       	ori	r24, 0x04	; 4
     148:	80 bd       	out	0x20, r24	; 32
     14a:	80 b5       	in	r24, 0x20	; 32
     14c:	82 60       	ori	r24, 0x02	; 2
     14e:	80 bd       	out	0x20, r24	; 32
     150:	03 c0       	rjmp	.+6      	; 0x158 <USART_init+0xa8>
     152:	80 b5       	in	r24, 0x20	; 32
     154:	86 60       	ori	r24, 0x06	; 6
     156:	80 bd       	out	0x20, r24	; 32
     158:	0f 2e       	mov	r0, r31
     15a:	f0 ed       	ldi	r31, 0xD0	; 208
     15c:	cf 2e       	mov	r12, r31
     15e:	f2 e1       	ldi	r31, 0x12	; 18
     160:	df 2e       	mov	r13, r31
     162:	f3 e1       	ldi	r31, 0x13	; 19
     164:	ef 2e       	mov	r14, r31
     166:	f1 2c       	mov	r15, r1
     168:	f0 2d       	mov	r31, r0
     16a:	20 91 d6 00 	lds	r18, 0x00D6	; 0x8000d6 <BAUD>
     16e:	30 91 d7 00 	lds	r19, 0x00D7	; 0x8000d7 <BAUD+0x1>
     172:	40 91 d8 00 	lds	r20, 0x00D8	; 0x8000d8 <BAUD+0x2>
     176:	50 91 d9 00 	lds	r21, 0x00D9	; 0x8000d9 <BAUD+0x3>
     17a:	c7 01       	movw	r24, r14
     17c:	b6 01       	movw	r22, r12
     17e:	0e 94 32 0e 	call	0x1c64	; 0x1c64 <__udivmodsi4>
     182:	21 50       	subi	r18, 0x01	; 1
     184:	29 b9       	out	0x09, r18	; 9
     186:	20 91 d6 00 	lds	r18, 0x00D6	; 0x8000d6 <BAUD>
     18a:	30 91 d7 00 	lds	r19, 0x00D7	; 0x8000d7 <BAUD+0x1>
     18e:	40 91 d8 00 	lds	r20, 0x00D8	; 0x8000d8 <BAUD+0x2>
     192:	50 91 d9 00 	lds	r21, 0x00D9	; 0x8000d9 <BAUD+0x3>
     196:	c7 01       	movw	r24, r14
     198:	b6 01       	movw	r22, r12
     19a:	0e 94 32 0e 	call	0x1c64	; 0x1c64 <__udivmodsi4>
     19e:	da 01       	movw	r26, r20
     1a0:	c9 01       	movw	r24, r18
     1a2:	01 97       	sbiw	r24, 0x01	; 1
     1a4:	a1 09       	sbc	r26, r1
     1a6:	b1 09       	sbc	r27, r1
     1a8:	89 2f       	mov	r24, r25
     1aa:	9a 2f       	mov	r25, r26
     1ac:	ab 2f       	mov	r26, r27
     1ae:	bb 27       	eor	r27, r27
     1b0:	80 bd       	out	0x20, r24	; 32
     1b2:	ff 90       	pop	r15
     1b4:	ef 90       	pop	r14
     1b6:	df 90       	pop	r13
     1b8:	cf 90       	pop	r12
     1ba:	08 95       	ret

000001bc <T>:
     1bc:	80 91 d6 00 	lds	r24, 0x00D6	; 0x8000d6 <BAUD>
     1c0:	90 91 d7 00 	lds	r25, 0x00D7	; 0x8000d7 <BAUD+0x1>
     1c4:	a0 91 d8 00 	lds	r26, 0x00D8	; 0x8000d8 <BAUD+0x2>
     1c8:	b0 91 d9 00 	lds	r27, 0x00D9	; 0x8000d9 <BAUD+0x3>
     1cc:	89 32       	cpi	r24, 0x29	; 41
     1ce:	93 42       	sbci	r25, 0x23	; 35
     1d0:	a1 05       	cpc	r26, r1
     1d2:	b1 05       	cpc	r27, r1
     1d4:	34 f4       	brge	.+12     	; 0x1e2 <T+0x26>
     1d6:	87 e8       	ldi	r24, 0x87	; 135
     1d8:	93 e1       	ldi	r25, 0x13	; 19
     1da:	01 97       	sbiw	r24, 0x01	; 1
     1dc:	f1 f7       	brne	.-4      	; 0x1da <T+0x1e>
     1de:	00 c0       	rjmp	.+0      	; 0x1e0 <T+0x24>
     1e0:	00 00       	nop
     1e2:	80 91 d6 00 	lds	r24, 0x00D6	; 0x8000d6 <BAUD>
     1e6:	90 91 d7 00 	lds	r25, 0x00D7	; 0x8000d7 <BAUD+0x1>
     1ea:	a0 91 d8 00 	lds	r26, 0x00D8	; 0x8000d8 <BAUD+0x2>
     1ee:	b0 91 d9 00 	lds	r27, 0x00D9	; 0x8000d9 <BAUD+0x3>
     1f2:	89 38       	cpi	r24, 0x89	; 137
     1f4:	93 41       	sbci	r25, 0x13	; 19
     1f6:	a1 05       	cpc	r26, r1
     1f8:	b1 05       	cpc	r27, r1
     1fa:	34 f4       	brge	.+12     	; 0x208 <__EEPROM_REGION_LENGTH__+0x8>
     1fc:	87 ec       	ldi	r24, 0xC7	; 199
     1fe:	9f ea       	ldi	r25, 0xAF	; 175
     200:	01 97       	sbiw	r24, 0x01	; 1
     202:	f1 f7       	brne	.-4      	; 0x200 <__EEPROM_REGION_LENGTH__>
     204:	00 c0       	rjmp	.+0      	; 0x206 <__EEPROM_REGION_LENGTH__+0x6>
     206:	00 00       	nop
     208:	80 91 d6 00 	lds	r24, 0x00D6	; 0x8000d6 <BAUD>
     20c:	90 91 d7 00 	lds	r25, 0x00D7	; 0x8000d7 <BAUD+0x1>
     210:	a0 91 d8 00 	lds	r26, 0x00D8	; 0x8000d8 <BAUD+0x2>
     214:	b0 91 d9 00 	lds	r27, 0x00D9	; 0x8000d9 <BAUD+0x3>
     218:	81 3b       	cpi	r24, 0xB1	; 177
     21a:	94 40       	sbci	r25, 0x04	; 4
     21c:	a1 05       	cpc	r26, r1
     21e:	b1 05       	cpc	r27, r1
     220:	4c f4       	brge	.+18     	; 0x234 <__EEPROM_REGION_LENGTH__+0x34>
     222:	8f e3       	ldi	r24, 0x3F	; 63
     224:	9d e0       	ldi	r25, 0x0D	; 13
     226:	23 e0       	ldi	r18, 0x03	; 3
     228:	81 50       	subi	r24, 0x01	; 1
     22a:	90 40       	sbci	r25, 0x00	; 0
     22c:	20 40       	sbci	r18, 0x00	; 0
     22e:	e1 f7       	brne	.-8      	; 0x228 <__EEPROM_REGION_LENGTH__+0x28>
     230:	00 c0       	rjmp	.+0      	; 0x232 <__EEPROM_REGION_LENGTH__+0x32>
     232:	00 00       	nop
     234:	08 95       	ret

00000236 <USART_TxChar>:
     236:	5d 9b       	sbis	0x0b, 5	; 11
     238:	fe cf       	rjmp	.-4      	; 0x236 <USART_TxChar>
     23a:	8c b9       	out	0x0c, r24	; 12
     23c:	08 95       	ret

0000023e <USART_Send>:
     23e:	0f 93       	push	r16
     240:	1f 93       	push	r17
     242:	cf 93       	push	r28
     244:	df 93       	push	r29
     246:	8c 01       	movw	r16, r24
     248:	c0 e0       	ldi	r28, 0x00	; 0
     24a:	d0 e0       	ldi	r29, 0x00	; 0
     24c:	05 c0       	rjmp	.+10     	; 0x258 <USART_Send+0x1a>
     24e:	0e 94 1b 01 	call	0x236	; 0x236 <USART_TxChar>
     252:	0e 94 de 00 	call	0x1bc	; 0x1bc <T>
     256:	21 96       	adiw	r28, 0x01	; 1
     258:	f8 01       	movw	r30, r16
     25a:	ec 0f       	add	r30, r28
     25c:	fd 1f       	adc	r31, r29
     25e:	80 81       	ld	r24, Z
     260:	81 11       	cpse	r24, r1
     262:	f5 cf       	rjmp	.-22     	; 0x24e <USART_Send+0x10>
     264:	df 91       	pop	r29
     266:	cf 91       	pop	r28
     268:	1f 91       	pop	r17
     26a:	0f 91       	pop	r16
     26c:	08 95       	ret

0000026e <USART_Send_ESS>:
     26e:	ef 92       	push	r14
     270:	ff 92       	push	r15
     272:	0f 93       	push	r16
     274:	1f 93       	push	r17
     276:	cf 93       	push	r28
     278:	df 93       	push	r29
     27a:	8c 01       	movw	r16, r24
     27c:	7b 01       	movw	r14, r22
     27e:	c0 e0       	ldi	r28, 0x00	; 0
     280:	d0 e0       	ldi	r29, 0x00	; 0
     282:	09 c0       	rjmp	.+18     	; 0x296 <USART_Send_ESS+0x28>
     284:	f8 01       	movw	r30, r16
     286:	ec 0f       	add	r30, r28
     288:	fd 1f       	adc	r31, r29
     28a:	80 81       	ld	r24, Z
     28c:	0e 94 1b 01 	call	0x236	; 0x236 <USART_TxChar>
     290:	0e 94 de 00 	call	0x1bc	; 0x1bc <T>
     294:	21 96       	adiw	r28, 0x01	; 1
     296:	f8 01       	movw	r30, r16
     298:	01 90       	ld	r0, Z+
     29a:	00 20       	and	r0, r0
     29c:	e9 f7       	brne	.-6      	; 0x298 <USART_Send_ESS+0x2a>
     29e:	31 97       	sbiw	r30, 0x01	; 1
     2a0:	e0 1b       	sub	r30, r16
     2a2:	f1 0b       	sbc	r31, r17
     2a4:	ce 17       	cp	r28, r30
     2a6:	df 07       	cpc	r29, r31
     2a8:	68 f3       	brcs	.-38     	; 0x284 <USART_Send_ESS+0x16>
     2aa:	ea 94       	dec	r14
     2ac:	ef 28       	or	r14, r15
     2ae:	79 f4       	brne	.+30     	; 0x2ce <USART_Send_ESS+0x60>
     2b0:	80 e2       	ldi	r24, 0x20	; 32
     2b2:	0e 94 1b 01 	call	0x236	; 0x236 <USART_TxChar>
     2b6:	0e 94 de 00 	call	0x1bc	; 0x1bc <T>
     2ba:	8c e7       	ldi	r24, 0x7C	; 124
     2bc:	0e 94 1b 01 	call	0x236	; 0x236 <USART_TxChar>
     2c0:	0e 94 de 00 	call	0x1bc	; 0x1bc <T>
     2c4:	85 e4       	ldi	r24, 0x45	; 69
     2c6:	0e 94 1b 01 	call	0x236	; 0x236 <USART_TxChar>
     2ca:	0e 94 de 00 	call	0x1bc	; 0x1bc <T>
     2ce:	df 91       	pop	r29
     2d0:	cf 91       	pop	r28
     2d2:	1f 91       	pop	r17
     2d4:	0f 91       	pop	r16
     2d6:	ff 90       	pop	r15
     2d8:	ef 90       	pop	r14
     2da:	08 95       	ret

000002dc <USART_Int_Str>:
     2dc:	cf 93       	push	r28
     2de:	df 93       	push	r29
     2e0:	eb 01       	movw	r28, r22
     2e2:	4a e0       	ldi	r20, 0x0A	; 10
     2e4:	6e ed       	ldi	r22, 0xDE	; 222
     2e6:	70 e0       	ldi	r23, 0x00	; 0
     2e8:	0e 94 75 0e 	call	0x1cea	; 0x1cea <__itoa_ncheck>
     2ec:	be 01       	movw	r22, r28
     2ee:	8e ed       	ldi	r24, 0xDE	; 222
     2f0:	90 e0       	ldi	r25, 0x00	; 0
     2f2:	0e 94 37 01 	call	0x26e	; 0x26e <USART_Send_ESS>
     2f6:	df 91       	pop	r29
     2f8:	cf 91       	pop	r28
     2fa:	08 95       	ret

000002fc <SPI_MAST_Init>:
     2fc:	0f 93       	push	r16
     2fe:	e7 b3       	in	r30, 0x17	; 23
     300:	e0 6f       	ori	r30, 0xF0	; 240
     302:	e7 bb       	out	0x17, r30	; 23
     304:	0e b9       	out	0x0e, r16	; 14
     306:	1d b8       	out	0x0d, r1	; 13
     308:	ed b1       	in	r30, 0x0d	; 13
     30a:	88 0f       	add	r24, r24
     30c:	99 1f       	adc	r25, r25
     30e:	82 95       	swap	r24
     310:	92 95       	swap	r25
     312:	90 7f       	andi	r25, 0xF0	; 240
     314:	98 27       	eor	r25, r24
     316:	80 7f       	andi	r24, 0xF0	; 240
     318:	98 27       	eor	r25, r24
     31a:	8e 2b       	or	r24, r30
     31c:	8d b9       	out	0x0d, r24	; 13
     31e:	8d b1       	in	r24, 0x0d	; 13
     320:	44 0f       	add	r20, r20
     322:	55 1f       	adc	r21, r21
     324:	44 0f       	add	r20, r20
     326:	55 1f       	adc	r21, r21
     328:	44 0f       	add	r20, r20
     32a:	55 1f       	adc	r21, r21
     32c:	22 0f       	add	r18, r18
     32e:	33 1f       	adc	r19, r19
     330:	22 0f       	add	r18, r18
     332:	33 1f       	adc	r19, r19
     334:	40 6c       	ori	r20, 0xC0	; 192
     336:	24 2b       	or	r18, r20
     338:	28 2b       	or	r18, r24
     33a:	20 61       	ori	r18, 0x10	; 16
     33c:	2d b9       	out	0x0d, r18	; 13
     33e:	60 31       	cpi	r22, 0x10	; 16
     340:	71 05       	cpc	r23, r1
     342:	99 f0       	breq	.+38     	; 0x36a <SPI_MAST_Init+0x6e>
     344:	24 f4       	brge	.+8      	; 0x34e <SPI_MAST_Init+0x52>
     346:	64 30       	cpi	r22, 0x04	; 4
     348:	71 05       	cpc	r23, r1
     34a:	41 f0       	breq	.+16     	; 0x35c <SPI_MAST_Init+0x60>
     34c:	22 c0       	rjmp	.+68     	; 0x392 <SPI_MAST_Init+0x96>
     34e:	60 34       	cpi	r22, 0x40	; 64
     350:	71 05       	cpc	r23, r1
     352:	91 f0       	breq	.+36     	; 0x378 <SPI_MAST_Init+0x7c>
     354:	60 38       	cpi	r22, 0x80	; 128
     356:	71 05       	cpc	r23, r1
     358:	b1 f0       	breq	.+44     	; 0x386 <SPI_MAST_Init+0x8a>
     35a:	1b c0       	rjmp	.+54     	; 0x392 <SPI_MAST_Init+0x96>
     35c:	8d b1       	in	r24, 0x0d	; 13
     35e:	8d 7f       	andi	r24, 0xFD	; 253
     360:	8d b9       	out	0x0d, r24	; 13
     362:	8d b1       	in	r24, 0x0d	; 13
     364:	8e 7f       	andi	r24, 0xFE	; 254
     366:	8d b9       	out	0x0d, r24	; 13
     368:	14 c0       	rjmp	.+40     	; 0x392 <SPI_MAST_Init+0x96>
     36a:	8d b1       	in	r24, 0x0d	; 13
     36c:	8d 7f       	andi	r24, 0xFD	; 253
     36e:	8d b9       	out	0x0d, r24	; 13
     370:	8d b1       	in	r24, 0x0d	; 13
     372:	81 60       	ori	r24, 0x01	; 1
     374:	8d b9       	out	0x0d, r24	; 13
     376:	0d c0       	rjmp	.+26     	; 0x392 <SPI_MAST_Init+0x96>
     378:	8d b1       	in	r24, 0x0d	; 13
     37a:	82 60       	ori	r24, 0x02	; 2
     37c:	8d b9       	out	0x0d, r24	; 13
     37e:	8d b1       	in	r24, 0x0d	; 13
     380:	8e 7f       	andi	r24, 0xFE	; 254
     382:	8d b9       	out	0x0d, r24	; 13
     384:	06 c0       	rjmp	.+12     	; 0x392 <SPI_MAST_Init+0x96>
     386:	8d b1       	in	r24, 0x0d	; 13
     388:	82 60       	ori	r24, 0x02	; 2
     38a:	8d b9       	out	0x0d, r24	; 13
     38c:	8d b1       	in	r24, 0x0d	; 13
     38e:	81 60       	ori	r24, 0x01	; 1
     390:	8d b9       	out	0x0d, r24	; 13
     392:	0f 91       	pop	r16
     394:	08 95       	ret

00000396 <SPI_Write>:
     396:	e7 e8       	ldi	r30, 0x87	; 135
     398:	f3 e1       	ldi	r31, 0x13	; 19
     39a:	31 97       	sbiw	r30, 0x01	; 1
     39c:	f1 f7       	brne	.-4      	; 0x39a <SPI_Write+0x4>
     39e:	00 c0       	rjmp	.+0      	; 0x3a0 <SPI_Write+0xa>
     3a0:	00 00       	nop
     3a2:	8f b9       	out	0x0f, r24	; 15
     3a4:	77 9b       	sbis	0x0e, 7	; 14
     3a6:	fe cf       	rjmp	.-4      	; 0x3a4 <SPI_Write+0xe>
     3a8:	8f b1       	in	r24, 0x0f	; 15
     3aa:	08 95       	ret

000003ac <SPI_transfer>:
     3ac:	8f b9       	out	0x0f, r24	; 15
     3ae:	77 9b       	sbis	0x0e, 7	; 14
     3b0:	fe cf       	rjmp	.-4      	; 0x3ae <SPI_transfer+0x2>
     3b2:	8f b1       	in	r24, 0x0f	; 15
     3b4:	08 95       	ret

000003b6 <I2C_Init>:
     3b6:	11 b8       	out	0x01, r1	; 1
     3b8:	81 e1       	ldi	r24, 0x11	; 17
     3ba:	80 b9       	out	0x00, r24	; 0
     3bc:	08 95       	ret

000003be <I2C_Start>:
     3be:	94 ea       	ldi	r25, 0xA4	; 164
     3c0:	96 bf       	out	0x36, r25	; 54
     3c2:	06 b6       	in	r0, 0x36	; 54
     3c4:	07 fe       	sbrs	r0, 7
     3c6:	fd cf       	rjmp	.-6      	; 0x3c2 <I2C_Start+0x4>
     3c8:	91 b1       	in	r25, 0x01	; 1
     3ca:	98 7f       	andi	r25, 0xF8	; 248
     3cc:	98 30       	cpi	r25, 0x08	; 8
     3ce:	71 f4       	brne	.+28     	; 0x3ec <I2C_Start+0x2e>
     3d0:	83 b9       	out	0x03, r24	; 3
     3d2:	84 e8       	ldi	r24, 0x84	; 132
     3d4:	86 bf       	out	0x36, r24	; 54
     3d6:	06 b6       	in	r0, 0x36	; 54
     3d8:	07 fe       	sbrs	r0, 7
     3da:	fd cf       	rjmp	.-6      	; 0x3d6 <I2C_Start+0x18>
     3dc:	81 b1       	in	r24, 0x01	; 1
     3de:	88 7f       	andi	r24, 0xF8	; 248
     3e0:	88 31       	cpi	r24, 0x18	; 24
     3e2:	31 f0       	breq	.+12     	; 0x3f0 <I2C_Start+0x32>
     3e4:	80 32       	cpi	r24, 0x20	; 32
     3e6:	31 f4       	brne	.+12     	; 0x3f4 <I2C_Start+0x36>
     3e8:	82 e0       	ldi	r24, 0x02	; 2
     3ea:	08 95       	ret
     3ec:	80 e0       	ldi	r24, 0x00	; 0
     3ee:	08 95       	ret
     3f0:	81 e0       	ldi	r24, 0x01	; 1
     3f2:	08 95       	ret
     3f4:	83 e0       	ldi	r24, 0x03	; 3
     3f6:	08 95       	ret

000003f8 <I2C_Start_NORETURN>:
     3f8:	94 ea       	ldi	r25, 0xA4	; 164
     3fa:	96 bf       	out	0x36, r25	; 54
     3fc:	06 b6       	in	r0, 0x36	; 54
     3fe:	07 fe       	sbrs	r0, 7
     400:	fd cf       	rjmp	.-6      	; 0x3fc <I2C_Start_NORETURN+0x4>
     402:	83 b9       	out	0x03, r24	; 3
     404:	84 e8       	ldi	r24, 0x84	; 132
     406:	86 bf       	out	0x36, r24	; 54
     408:	06 b6       	in	r0, 0x36	; 54
     40a:	07 fe       	sbrs	r0, 7
     40c:	fd cf       	rjmp	.-6      	; 0x408 <__DATA_REGION_LENGTH__+0x8>
     40e:	08 95       	ret

00000410 <I2C_Repeated_Start>:
     410:	94 ea       	ldi	r25, 0xA4	; 164
     412:	96 bf       	out	0x36, r25	; 54
     414:	06 b6       	in	r0, 0x36	; 54
     416:	07 fe       	sbrs	r0, 7
     418:	fd cf       	rjmp	.-6      	; 0x414 <I2C_Repeated_Start+0x4>
     41a:	91 b1       	in	r25, 0x01	; 1
     41c:	98 7f       	andi	r25, 0xF8	; 248
     41e:	90 31       	cpi	r25, 0x10	; 16
     420:	71 f4       	brne	.+28     	; 0x43e <I2C_Repeated_Start+0x2e>
     422:	83 b9       	out	0x03, r24	; 3
     424:	84 e8       	ldi	r24, 0x84	; 132
     426:	86 bf       	out	0x36, r24	; 54
     428:	06 b6       	in	r0, 0x36	; 54
     42a:	07 fe       	sbrs	r0, 7
     42c:	fd cf       	rjmp	.-6      	; 0x428 <I2C_Repeated_Start+0x18>
     42e:	81 b1       	in	r24, 0x01	; 1
     430:	88 7f       	andi	r24, 0xF8	; 248
     432:	80 34       	cpi	r24, 0x40	; 64
     434:	31 f0       	breq	.+12     	; 0x442 <I2C_Repeated_Start+0x32>
     436:	80 32       	cpi	r24, 0x20	; 32
     438:	31 f4       	brne	.+12     	; 0x446 <I2C_Repeated_Start+0x36>
     43a:	82 e0       	ldi	r24, 0x02	; 2
     43c:	08 95       	ret
     43e:	80 e0       	ldi	r24, 0x00	; 0
     440:	08 95       	ret
     442:	81 e0       	ldi	r24, 0x01	; 1
     444:	08 95       	ret
     446:	83 e0       	ldi	r24, 0x03	; 3
     448:	08 95       	ret

0000044a <I2C_Stop>:
     44a:	84 e9       	ldi	r24, 0x94	; 148
     44c:	86 bf       	out	0x36, r24	; 54
     44e:	06 b6       	in	r0, 0x36	; 54
     450:	04 fc       	sbrc	r0, 4
     452:	fd cf       	rjmp	.-6      	; 0x44e <I2C_Stop+0x4>
     454:	08 95       	ret

00000456 <I2C_Start_Wait>:
     456:	cf 93       	push	r28
     458:	c8 2f       	mov	r28, r24
     45a:	84 ea       	ldi	r24, 0xA4	; 164
     45c:	86 bf       	out	0x36, r24	; 54
     45e:	06 b6       	in	r0, 0x36	; 54
     460:	07 fe       	sbrs	r0, 7
     462:	fd cf       	rjmp	.-6      	; 0x45e <I2C_Start_Wait+0x8>
     464:	81 b1       	in	r24, 0x01	; 1
     466:	88 7f       	andi	r24, 0xF8	; 248
     468:	88 30       	cpi	r24, 0x08	; 8
     46a:	b9 f7       	brne	.-18     	; 0x45a <I2C_Start_Wait+0x4>
     46c:	c3 b9       	out	0x03, r28	; 3
     46e:	84 e8       	ldi	r24, 0x84	; 132
     470:	86 bf       	out	0x36, r24	; 54
     472:	06 b6       	in	r0, 0x36	; 54
     474:	07 fe       	sbrs	r0, 7
     476:	fd cf       	rjmp	.-6      	; 0x472 <__stack+0x13>
     478:	81 b1       	in	r24, 0x01	; 1
     47a:	88 7f       	andi	r24, 0xF8	; 248
     47c:	88 31       	cpi	r24, 0x18	; 24
     47e:	19 f0       	breq	.+6      	; 0x486 <__stack+0x27>
     480:	0e 94 25 02 	call	0x44a	; 0x44a <I2C_Stop>
     484:	ea cf       	rjmp	.-44     	; 0x45a <I2C_Start_Wait+0x4>
     486:	cf 91       	pop	r28
     488:	08 95       	ret

0000048a <I2C_Write>:
     48a:	83 b9       	out	0x03, r24	; 3
     48c:	84 e8       	ldi	r24, 0x84	; 132
     48e:	86 bf       	out	0x36, r24	; 54
     490:	06 b6       	in	r0, 0x36	; 54
     492:	07 fe       	sbrs	r0, 7
     494:	fd cf       	rjmp	.-6      	; 0x490 <I2C_Write+0x6>
     496:	81 b1       	in	r24, 0x01	; 1
     498:	88 7f       	andi	r24, 0xF8	; 248
     49a:	88 32       	cpi	r24, 0x28	; 40
     49c:	21 f0       	breq	.+8      	; 0x4a6 <I2C_Write+0x1c>
     49e:	80 33       	cpi	r24, 0x30	; 48
     4a0:	21 f4       	brne	.+8      	; 0x4aa <I2C_Write+0x20>
     4a2:	81 e0       	ldi	r24, 0x01	; 1
     4a4:	08 95       	ret
     4a6:	80 e0       	ldi	r24, 0x00	; 0
     4a8:	08 95       	ret
     4aa:	82 e0       	ldi	r24, 0x02	; 2
     4ac:	08 95       	ret

000004ae <I2C_Read_Ack>:
     4ae:	84 ec       	ldi	r24, 0xC4	; 196
     4b0:	86 bf       	out	0x36, r24	; 54
     4b2:	06 b6       	in	r0, 0x36	; 54
     4b4:	07 fe       	sbrs	r0, 7
     4b6:	fd cf       	rjmp	.-6      	; 0x4b2 <I2C_Read_Ack+0x4>
     4b8:	83 b1       	in	r24, 0x03	; 3
     4ba:	08 95       	ret

000004bc <I2C_Read_Nack>:
     4bc:	84 e8       	ldi	r24, 0x84	; 132
     4be:	86 bf       	out	0x36, r24	; 54
     4c0:	06 b6       	in	r0, 0x36	; 54
     4c2:	07 fe       	sbrs	r0, 7
     4c4:	fd cf       	rjmp	.-6      	; 0x4c0 <I2C_Read_Nack+0x4>
     4c6:	83 b1       	in	r24, 0x03	; 3
     4c8:	08 95       	ret

000004ca <RTC_Clock_Read>:
     4ca:	cf 93       	push	r28
     4cc:	df 93       	push	r29
     4ce:	ec 01       	movw	r28, r24
     4d0:	80 ed       	ldi	r24, 0xD0	; 208
     4d2:	0e 94 df 01 	call	0x3be	; 0x3be <I2C_Start>
     4d6:	80 e0       	ldi	r24, 0x00	; 0
     4d8:	0e 94 45 02 	call	0x48a	; 0x48a <I2C_Write>
     4dc:	81 ed       	ldi	r24, 0xD1	; 209
     4de:	0e 94 08 02 	call	0x410	; 0x410 <I2C_Repeated_Start>
     4e2:	0e 94 57 02 	call	0x4ae	; 0x4ae <I2C_Read_Ack>
     4e6:	80 93 f2 02 	sts	0x02F2, r24	; 0x8002f2 <second>
     4ea:	0e 94 57 02 	call	0x4ae	; 0x4ae <I2C_Read_Ack>
     4ee:	80 93 f3 02 	sts	0x02F3, r24	; 0x8002f3 <minute>
     4f2:	0e 94 5e 02 	call	0x4bc	; 0x4bc <I2C_Read_Nack>
     4f6:	80 93 f8 02 	sts	0x02F8, r24	; 0x8002f8 <hour>
     4fa:	0e 94 25 02 	call	0x44a	; 0x44a <I2C_Stop>
     4fe:	50 91 f8 02 	lds	r21, 0x02F8	; 0x8002f8 <hour>
     502:	65 2f       	mov	r22, r21
     504:	60 72       	andi	r22, 0x20	; 32
     506:	40 91 f2 02 	lds	r20, 0x02F2	; 0x8002f2 <second>
     50a:	24 2f       	mov	r18, r20
     50c:	20 77       	andi	r18, 0x70	; 112
     50e:	30 e0       	ldi	r19, 0x00	; 0
     510:	35 95       	asr	r19
     512:	27 95       	ror	r18
     514:	35 95       	asr	r19
     516:	27 95       	ror	r18
     518:	35 95       	asr	r19
     51a:	27 95       	ror	r18
     51c:	35 95       	asr	r19
     51e:	27 95       	ror	r18
     520:	84 2f       	mov	r24, r20
     522:	8f 70       	andi	r24, 0x0F	; 15
     524:	22 0f       	add	r18, r18
     526:	42 2f       	mov	r20, r18
     528:	44 0f       	add	r20, r20
     52a:	44 0f       	add	r20, r20
     52c:	24 0f       	add	r18, r20
     52e:	48 2f       	mov	r20, r24
     530:	42 0f       	add	r20, r18
     532:	40 93 f2 02 	sts	0x02F2, r20	; 0x8002f2 <second>
     536:	80 91 f3 02 	lds	r24, 0x02F3	; 0x8002f3 <minute>
     53a:	28 2f       	mov	r18, r24
     53c:	20 77       	andi	r18, 0x70	; 112
     53e:	30 e0       	ldi	r19, 0x00	; 0
     540:	35 95       	asr	r19
     542:	27 95       	ror	r18
     544:	35 95       	asr	r19
     546:	27 95       	ror	r18
     548:	35 95       	asr	r19
     54a:	27 95       	ror	r18
     54c:	35 95       	asr	r19
     54e:	27 95       	ror	r18
     550:	98 2f       	mov	r25, r24
     552:	9f 70       	andi	r25, 0x0F	; 15
     554:	22 0f       	add	r18, r18
     556:	82 2f       	mov	r24, r18
     558:	88 0f       	add	r24, r24
     55a:	88 0f       	add	r24, r24
     55c:	28 0f       	add	r18, r24
     55e:	29 0f       	add	r18, r25
     560:	20 93 f3 02 	sts	0x02F3, r18	; 0x8002f3 <minute>
     564:	85 2f       	mov	r24, r21
     566:	80 71       	andi	r24, 0x10	; 16
     568:	90 e0       	ldi	r25, 0x00	; 0
     56a:	95 95       	asr	r25
     56c:	87 95       	ror	r24
     56e:	95 95       	asr	r25
     570:	87 95       	ror	r24
     572:	95 95       	asr	r25
     574:	87 95       	ror	r24
     576:	95 95       	asr	r25
     578:	87 95       	ror	r24
     57a:	5f 70       	andi	r21, 0x0F	; 15
     57c:	88 0f       	add	r24, r24
     57e:	98 2f       	mov	r25, r24
     580:	99 0f       	add	r25, r25
     582:	99 0f       	add	r25, r25
     584:	89 0f       	add	r24, r25
     586:	85 0f       	add	r24, r21
     588:	80 93 f8 02 	sts	0x02F8, r24	; 0x8002f8 <hour>
     58c:	48 83       	st	Y, r20
     58e:	80 91 f3 02 	lds	r24, 0x02F3	; 0x8002f3 <minute>
     592:	89 83       	std	Y+1, r24	; 0x01
     594:	80 91 f8 02 	lds	r24, 0x02F8	; 0x8002f8 <hour>
     598:	8a 83       	std	Y+2, r24	; 0x02
     59a:	6b 83       	std	Y+3, r22	; 0x03
     59c:	df 91       	pop	r29
     59e:	cf 91       	pop	r28
     5a0:	08 95       	ret

000005a2 <RTC_Calendar_Read>:
     5a2:	cf 93       	push	r28
     5a4:	df 93       	push	r29
     5a6:	ec 01       	movw	r28, r24
     5a8:	80 ed       	ldi	r24, 0xD0	; 208
     5aa:	0e 94 df 01 	call	0x3be	; 0x3be <I2C_Start>
     5ae:	83 e0       	ldi	r24, 0x03	; 3
     5b0:	0e 94 45 02 	call	0x48a	; 0x48a <I2C_Write>
     5b4:	81 ed       	ldi	r24, 0xD1	; 209
     5b6:	0e 94 08 02 	call	0x410	; 0x410 <I2C_Repeated_Start>
     5ba:	0e 94 57 02 	call	0x4ae	; 0x4ae <I2C_Read_Ack>
     5be:	80 93 0e 03 	sts	0x030E, r24	; 0x80030e <day>
     5c2:	0e 94 57 02 	call	0x4ae	; 0x4ae <I2C_Read_Ack>
     5c6:	80 93 0f 03 	sts	0x030F, r24	; 0x80030f <date>
     5ca:	0e 94 57 02 	call	0x4ae	; 0x4ae <I2C_Read_Ack>
     5ce:	80 93 f1 02 	sts	0x02F1, r24	; 0x8002f1 <month>
     5d2:	0e 94 5e 02 	call	0x4bc	; 0x4bc <I2C_Read_Nack>
     5d6:	80 93 09 03 	sts	0x0309, r24	; 0x800309 <year>
     5da:	0e 94 25 02 	call	0x44a	; 0x44a <I2C_Stop>
     5de:	30 91 0f 03 	lds	r19, 0x030F	; 0x80030f <date>
     5e2:	83 2f       	mov	r24, r19
     5e4:	80 73       	andi	r24, 0x30	; 48
     5e6:	90 e0       	ldi	r25, 0x00	; 0
     5e8:	95 95       	asr	r25
     5ea:	87 95       	ror	r24
     5ec:	95 95       	asr	r25
     5ee:	87 95       	ror	r24
     5f0:	95 95       	asr	r25
     5f2:	87 95       	ror	r24
     5f4:	95 95       	asr	r25
     5f6:	87 95       	ror	r24
     5f8:	93 2f       	mov	r25, r19
     5fa:	9f 70       	andi	r25, 0x0F	; 15
     5fc:	88 0f       	add	r24, r24
     5fe:	38 2f       	mov	r19, r24
     600:	33 0f       	add	r19, r19
     602:	33 0f       	add	r19, r19
     604:	83 0f       	add	r24, r19
     606:	39 2f       	mov	r19, r25
     608:	38 0f       	add	r19, r24
     60a:	30 93 0f 03 	sts	0x030F, r19	; 0x80030f <date>
     60e:	20 91 f1 02 	lds	r18, 0x02F1	; 0x8002f1 <month>
     612:	82 2f       	mov	r24, r18
     614:	80 71       	andi	r24, 0x10	; 16
     616:	90 e0       	ldi	r25, 0x00	; 0
     618:	95 95       	asr	r25
     61a:	87 95       	ror	r24
     61c:	95 95       	asr	r25
     61e:	87 95       	ror	r24
     620:	95 95       	asr	r25
     622:	87 95       	ror	r24
     624:	95 95       	asr	r25
     626:	87 95       	ror	r24
     628:	2f 70       	andi	r18, 0x0F	; 15
     62a:	88 0f       	add	r24, r24
     62c:	98 2f       	mov	r25, r24
     62e:	99 0f       	add	r25, r25
     630:	99 0f       	add	r25, r25
     632:	89 0f       	add	r24, r25
     634:	82 0f       	add	r24, r18
     636:	80 93 f1 02 	sts	0x02F1, r24	; 0x8002f1 <month>
     63a:	20 91 09 03 	lds	r18, 0x0309	; 0x800309 <year>
     63e:	92 2f       	mov	r25, r18
     640:	92 95       	swap	r25
     642:	9f 70       	andi	r25, 0x0F	; 15
     644:	42 2f       	mov	r20, r18
     646:	4f 70       	andi	r20, 0x0F	; 15
     648:	99 0f       	add	r25, r25
     64a:	29 2f       	mov	r18, r25
     64c:	22 0f       	add	r18, r18
     64e:	22 0f       	add	r18, r18
     650:	92 0f       	add	r25, r18
     652:	94 0f       	add	r25, r20
     654:	90 93 09 03 	sts	0x0309, r25	; 0x800309 <year>
     658:	20 91 0e 03 	lds	r18, 0x030E	; 0x80030e <day>
     65c:	2c 83       	std	Y+4, r18	; 0x04
     65e:	3d 83       	std	Y+5, r19	; 0x05
     660:	8e 83       	std	Y+6, r24	; 0x06
     662:	9f 83       	std	Y+7, r25	; 0x07
     664:	df 91       	pop	r29
     666:	cf 91       	pop	r28
     668:	08 95       	ret

0000066a <SD_Command>:
     66a:	ff 92       	push	r15
     66c:	0f 93       	push	r16
     66e:	1f 93       	push	r17
     670:	cf 93       	push	r28
     672:	df 93       	push	r29
     674:	d4 2f       	mov	r29, r20
     676:	15 2f       	mov	r17, r21
     678:	06 2f       	mov	r16, r22
     67a:	f7 2e       	mov	r15, r23
     67c:	c2 2f       	mov	r28, r18
     67e:	80 64       	ori	r24, 0x40	; 64
     680:	0e 94 cb 01 	call	0x396	; 0x396 <SPI_Write>
     684:	8f 2d       	mov	r24, r15
     686:	0e 94 cb 01 	call	0x396	; 0x396 <SPI_Write>
     68a:	80 2f       	mov	r24, r16
     68c:	0e 94 cb 01 	call	0x396	; 0x396 <SPI_Write>
     690:	81 2f       	mov	r24, r17
     692:	0e 94 cb 01 	call	0x396	; 0x396 <SPI_Write>
     696:	8d 2f       	mov	r24, r29
     698:	0e 94 cb 01 	call	0x396	; 0x396 <SPI_Write>
     69c:	8c 2f       	mov	r24, r28
     69e:	81 60       	ori	r24, 0x01	; 1
     6a0:	0e 94 cb 01 	call	0x396	; 0x396 <SPI_Write>
     6a4:	df 91       	pop	r29
     6a6:	cf 91       	pop	r28
     6a8:	1f 91       	pop	r17
     6aa:	0f 91       	pop	r16
     6ac:	ff 90       	pop	r15
     6ae:	08 95       	ret

000006b0 <SD_powerUpSeq>:
     6b0:	cf 93       	push	r28
     6b2:	8b b3       	in	r24, 0x1b	; 27
     6b4:	81 60       	ori	r24, 0x01	; 1
     6b6:	8b bb       	out	0x1b, r24	; 27
     6b8:	87 e8       	ldi	r24, 0x87	; 135
     6ba:	93 e1       	ldi	r25, 0x13	; 19
     6bc:	01 97       	sbiw	r24, 0x01	; 1
     6be:	f1 f7       	brne	.-4      	; 0x6bc <SD_powerUpSeq+0xc>
     6c0:	00 c0       	rjmp	.+0      	; 0x6c2 <SD_powerUpSeq+0x12>
     6c2:	00 00       	nop
     6c4:	c0 e0       	ldi	r28, 0x00	; 0
     6c6:	07 c0       	rjmp	.+14     	; 0x6d6 <SD_powerUpSeq+0x26>
     6c8:	8b b3       	in	r24, 0x1b	; 27
     6ca:	8e 7f       	andi	r24, 0xFE	; 254
     6cc:	8b bb       	out	0x1b, r24	; 27
     6ce:	8f ef       	ldi	r24, 0xFF	; 255
     6d0:	0e 94 cb 01 	call	0x396	; 0x396 <SPI_Write>
     6d4:	cf 5f       	subi	r28, 0xFF	; 255
     6d6:	c0 35       	cpi	r28, 0x50	; 80
     6d8:	b8 f3       	brcs	.-18     	; 0x6c8 <SD_powerUpSeq+0x18>
     6da:	8b b3       	in	r24, 0x1b	; 27
     6dc:	81 60       	ori	r24, 0x01	; 1
     6de:	8b bb       	out	0x1b, r24	; 27
     6e0:	8f ef       	ldi	r24, 0xFF	; 255
     6e2:	0e 94 cb 01 	call	0x396	; 0x396 <SPI_Write>
     6e6:	cf 91       	pop	r28
     6e8:	08 95       	ret

000006ea <SD_readRes1>:
     6ea:	cf 93       	push	r28
     6ec:	c0 e0       	ldi	r28, 0x00	; 0
     6ee:	03 c0       	rjmp	.+6      	; 0x6f6 <SD_readRes1+0xc>
     6f0:	cf 5f       	subi	r28, 0xFF	; 255
     6f2:	c9 30       	cpi	r28, 0x09	; 9
     6f4:	30 f4       	brcc	.+12     	; 0x702 <SD_readRes1+0x18>
     6f6:	8f ef       	ldi	r24, 0xFF	; 255
     6f8:	0e 94 d6 01 	call	0x3ac	; 0x3ac <SPI_transfer>
     6fc:	8f 3f       	cpi	r24, 0xFF	; 255
     6fe:	c1 f3       	breq	.-16     	; 0x6f0 <SD_readRes1+0x6>
     700:	01 c0       	rjmp	.+2      	; 0x704 <SD_readRes1+0x1a>
     702:	80 e8       	ldi	r24, 0x80	; 128
     704:	cf 91       	pop	r28
     706:	08 95       	ret

00000708 <SD_goIdleState>:
     708:	cf 93       	push	r28
     70a:	8f ef       	ldi	r24, 0xFF	; 255
     70c:	0e 94 d6 01 	call	0x3ac	; 0x3ac <SPI_transfer>
     710:	8b b3       	in	r24, 0x1b	; 27
     712:	8e 7f       	andi	r24, 0xFE	; 254
     714:	8b bb       	out	0x1b, r24	; 27
     716:	8f ef       	ldi	r24, 0xFF	; 255
     718:	0e 94 d6 01 	call	0x3ac	; 0x3ac <SPI_transfer>
     71c:	24 e9       	ldi	r18, 0x94	; 148
     71e:	40 e0       	ldi	r20, 0x00	; 0
     720:	50 e0       	ldi	r21, 0x00	; 0
     722:	ba 01       	movw	r22, r20
     724:	80 e0       	ldi	r24, 0x00	; 0
     726:	0e 94 35 03 	call	0x66a	; 0x66a <SD_Command>
     72a:	0e 94 75 03 	call	0x6ea	; 0x6ea <SD_readRes1>
     72e:	c8 2f       	mov	r28, r24
     730:	8f ef       	ldi	r24, 0xFF	; 255
     732:	0e 94 d6 01 	call	0x3ac	; 0x3ac <SPI_transfer>
     736:	8b b3       	in	r24, 0x1b	; 27
     738:	81 60       	ori	r24, 0x01	; 1
     73a:	8b bb       	out	0x1b, r24	; 27
     73c:	8f ef       	ldi	r24, 0xFF	; 255
     73e:	0e 94 d6 01 	call	0x3ac	; 0x3ac <SPI_transfer>
     742:	8c 2f       	mov	r24, r28
     744:	cf 91       	pop	r28
     746:	08 95       	ret

00000748 <SD_readRes7>:
     748:	cf 93       	push	r28
     74a:	df 93       	push	r29
     74c:	ec 01       	movw	r28, r24
     74e:	0e 94 75 03 	call	0x6ea	; 0x6ea <SD_readRes1>
     752:	88 83       	st	Y, r24
     754:	82 30       	cpi	r24, 0x02	; 2
     756:	80 f4       	brcc	.+32     	; 0x778 <SD_readRes7+0x30>
     758:	8f ef       	ldi	r24, 0xFF	; 255
     75a:	0e 94 d6 01 	call	0x3ac	; 0x3ac <SPI_transfer>
     75e:	89 83       	std	Y+1, r24	; 0x01
     760:	8f ef       	ldi	r24, 0xFF	; 255
     762:	0e 94 d6 01 	call	0x3ac	; 0x3ac <SPI_transfer>
     766:	8a 83       	std	Y+2, r24	; 0x02
     768:	8f ef       	ldi	r24, 0xFF	; 255
     76a:	0e 94 d6 01 	call	0x3ac	; 0x3ac <SPI_transfer>
     76e:	8b 83       	std	Y+3, r24	; 0x03
     770:	8f ef       	ldi	r24, 0xFF	; 255
     772:	0e 94 d6 01 	call	0x3ac	; 0x3ac <SPI_transfer>
     776:	8c 83       	std	Y+4, r24	; 0x04
     778:	df 91       	pop	r29
     77a:	cf 91       	pop	r28
     77c:	08 95       	ret

0000077e <SD_sendIfCond>:
     77e:	cf 93       	push	r28
     780:	df 93       	push	r29
     782:	ec 01       	movw	r28, r24
     784:	8f ef       	ldi	r24, 0xFF	; 255
     786:	0e 94 d6 01 	call	0x3ac	; 0x3ac <SPI_transfer>
     78a:	8b b3       	in	r24, 0x1b	; 27
     78c:	8e 7f       	andi	r24, 0xFE	; 254
     78e:	8b bb       	out	0x1b, r24	; 27
     790:	8f ef       	ldi	r24, 0xFF	; 255
     792:	0e 94 d6 01 	call	0x3ac	; 0x3ac <SPI_transfer>
     796:	26 e8       	ldi	r18, 0x86	; 134
     798:	4a ea       	ldi	r20, 0xAA	; 170
     79a:	51 e0       	ldi	r21, 0x01	; 1
     79c:	60 e0       	ldi	r22, 0x00	; 0
     79e:	70 e0       	ldi	r23, 0x00	; 0
     7a0:	88 e0       	ldi	r24, 0x08	; 8
     7a2:	0e 94 35 03 	call	0x66a	; 0x66a <SD_Command>
     7a6:	ce 01       	movw	r24, r28
     7a8:	0e 94 a4 03 	call	0x748	; 0x748 <SD_readRes7>
     7ac:	8f ef       	ldi	r24, 0xFF	; 255
     7ae:	0e 94 d6 01 	call	0x3ac	; 0x3ac <SPI_transfer>
     7b2:	8b b3       	in	r24, 0x1b	; 27
     7b4:	81 60       	ori	r24, 0x01	; 1
     7b6:	8b bb       	out	0x1b, r24	; 27
     7b8:	8f ef       	ldi	r24, 0xFF	; 255
     7ba:	0e 94 d6 01 	call	0x3ac	; 0x3ac <SPI_transfer>
     7be:	df 91       	pop	r29
     7c0:	cf 91       	pop	r28
     7c2:	08 95       	ret

000007c4 <SD_readOCR>:
     7c4:	cf 93       	push	r28
     7c6:	df 93       	push	r29
     7c8:	ec 01       	movw	r28, r24
     7ca:	8f ef       	ldi	r24, 0xFF	; 255
     7cc:	0e 94 d6 01 	call	0x3ac	; 0x3ac <SPI_transfer>
     7d0:	8b b3       	in	r24, 0x1b	; 27
     7d2:	8e 7f       	andi	r24, 0xFE	; 254
     7d4:	8b bb       	out	0x1b, r24	; 27
     7d6:	8f ef       	ldi	r24, 0xFF	; 255
     7d8:	0e 94 d6 01 	call	0x3ac	; 0x3ac <SPI_transfer>
     7dc:	20 e0       	ldi	r18, 0x00	; 0
     7de:	40 e0       	ldi	r20, 0x00	; 0
     7e0:	50 e0       	ldi	r21, 0x00	; 0
     7e2:	ba 01       	movw	r22, r20
     7e4:	8a e3       	ldi	r24, 0x3A	; 58
     7e6:	0e 94 35 03 	call	0x66a	; 0x66a <SD_Command>
     7ea:	ce 01       	movw	r24, r28
     7ec:	0e 94 a4 03 	call	0x748	; 0x748 <SD_readRes7>
     7f0:	8f ef       	ldi	r24, 0xFF	; 255
     7f2:	0e 94 d6 01 	call	0x3ac	; 0x3ac <SPI_transfer>
     7f6:	8b b3       	in	r24, 0x1b	; 27
     7f8:	81 60       	ori	r24, 0x01	; 1
     7fa:	8b bb       	out	0x1b, r24	; 27
     7fc:	8f ef       	ldi	r24, 0xFF	; 255
     7fe:	0e 94 d6 01 	call	0x3ac	; 0x3ac <SPI_transfer>
     802:	df 91       	pop	r29
     804:	cf 91       	pop	r28
     806:	08 95       	ret

00000808 <SD_sendApp>:
     808:	cf 93       	push	r28
     80a:	8f ef       	ldi	r24, 0xFF	; 255
     80c:	0e 94 d6 01 	call	0x3ac	; 0x3ac <SPI_transfer>
     810:	8b b3       	in	r24, 0x1b	; 27
     812:	8e 7f       	andi	r24, 0xFE	; 254
     814:	8b bb       	out	0x1b, r24	; 27
     816:	8f ef       	ldi	r24, 0xFF	; 255
     818:	0e 94 d6 01 	call	0x3ac	; 0x3ac <SPI_transfer>
     81c:	20 e0       	ldi	r18, 0x00	; 0
     81e:	40 e0       	ldi	r20, 0x00	; 0
     820:	50 e0       	ldi	r21, 0x00	; 0
     822:	ba 01       	movw	r22, r20
     824:	87 e3       	ldi	r24, 0x37	; 55
     826:	0e 94 35 03 	call	0x66a	; 0x66a <SD_Command>
     82a:	0e 94 75 03 	call	0x6ea	; 0x6ea <SD_readRes1>
     82e:	c8 2f       	mov	r28, r24
     830:	8f ef       	ldi	r24, 0xFF	; 255
     832:	0e 94 d6 01 	call	0x3ac	; 0x3ac <SPI_transfer>
     836:	8b b3       	in	r24, 0x1b	; 27
     838:	81 60       	ori	r24, 0x01	; 1
     83a:	8b bb       	out	0x1b, r24	; 27
     83c:	8f ef       	ldi	r24, 0xFF	; 255
     83e:	0e 94 d6 01 	call	0x3ac	; 0x3ac <SPI_transfer>
     842:	8c 2f       	mov	r24, r28
     844:	cf 91       	pop	r28
     846:	08 95       	ret

00000848 <SD_sendOpCond>:
     848:	cf 93       	push	r28
     84a:	8f ef       	ldi	r24, 0xFF	; 255
     84c:	0e 94 d6 01 	call	0x3ac	; 0x3ac <SPI_transfer>
     850:	8b b3       	in	r24, 0x1b	; 27
     852:	8e 7f       	andi	r24, 0xFE	; 254
     854:	8b bb       	out	0x1b, r24	; 27
     856:	8f ef       	ldi	r24, 0xFF	; 255
     858:	0e 94 d6 01 	call	0x3ac	; 0x3ac <SPI_transfer>
     85c:	20 e0       	ldi	r18, 0x00	; 0
     85e:	40 e0       	ldi	r20, 0x00	; 0
     860:	50 e0       	ldi	r21, 0x00	; 0
     862:	60 e0       	ldi	r22, 0x00	; 0
     864:	70 e4       	ldi	r23, 0x40	; 64
     866:	89 e2       	ldi	r24, 0x29	; 41
     868:	0e 94 35 03 	call	0x66a	; 0x66a <SD_Command>
     86c:	0e 94 75 03 	call	0x6ea	; 0x6ea <SD_readRes1>
     870:	c8 2f       	mov	r28, r24
     872:	8f ef       	ldi	r24, 0xFF	; 255
     874:	0e 94 d6 01 	call	0x3ac	; 0x3ac <SPI_transfer>
     878:	8b b3       	in	r24, 0x1b	; 27
     87a:	81 60       	ori	r24, 0x01	; 1
     87c:	8b bb       	out	0x1b, r24	; 27
     87e:	8f ef       	ldi	r24, 0xFF	; 255
     880:	0e 94 d6 01 	call	0x3ac	; 0x3ac <SPI_transfer>
     884:	8c 2f       	mov	r24, r28
     886:	cf 91       	pop	r28
     888:	08 95       	ret

0000088a <SD_Init>:
     88a:	0f 93       	push	r16
     88c:	1f 93       	push	r17
     88e:	cf 93       	push	r28
     890:	df 93       	push	r29
     892:	00 d0       	rcall	.+0      	; 0x894 <SD_Init+0xa>
     894:	00 d0       	rcall	.+0      	; 0x896 <SD_Init+0xc>
     896:	1f 92       	push	r1
     898:	cd b7       	in	r28, 0x3d	; 61
     89a:	de b7       	in	r29, 0x3e	; 62
     89c:	0e 94 58 03 	call	0x6b0	; 0x6b0 <SD_powerUpSeq>
     8a0:	00 e0       	ldi	r16, 0x00	; 0
     8a2:	03 c0       	rjmp	.+6      	; 0x8aa <SD_Init+0x20>
     8a4:	0f 5f       	subi	r16, 0xFF	; 255
     8a6:	0b 30       	cpi	r16, 0x0B	; 11
     8a8:	70 f5       	brcc	.+92     	; 0x906 <SD_Init+0x7c>
     8aa:	0e 94 84 03 	call	0x708	; 0x708 <SD_goIdleState>
     8ae:	18 2f       	mov	r17, r24
     8b0:	89 83       	std	Y+1, r24	; 0x01
     8b2:	81 30       	cpi	r24, 0x01	; 1
     8b4:	b9 f7       	brne	.-18     	; 0x8a4 <SD_Init+0x1a>
     8b6:	ce 01       	movw	r24, r28
     8b8:	01 96       	adiw	r24, 0x01	; 1
     8ba:	0e 94 bf 03 	call	0x77e	; 0x77e <SD_sendIfCond>
     8be:	89 81       	ldd	r24, Y+1	; 0x01
     8c0:	81 30       	cpi	r24, 0x01	; 1
     8c2:	41 f5       	brne	.+80     	; 0x914 <SD_Init+0x8a>
     8c4:	8d 81       	ldd	r24, Y+5	; 0x05
     8c6:	8a 3a       	cpi	r24, 0xAA	; 170
     8c8:	01 f5       	brne	.+64     	; 0x90a <SD_Init+0x80>
     8ca:	10 e0       	ldi	r17, 0x00	; 0
     8cc:	15 36       	cpi	r17, 0x65	; 101
     8ce:	f8 f4       	brcc	.+62     	; 0x90e <SD_Init+0x84>
     8d0:	0e 94 04 04 	call	0x808	; 0x808 <SD_sendApp>
     8d4:	89 83       	std	Y+1, r24	; 0x01
     8d6:	82 30       	cpi	r24, 0x02	; 2
     8d8:	18 f4       	brcc	.+6      	; 0x8e0 <SD_Init+0x56>
     8da:	0e 94 24 04 	call	0x848	; 0x848 <SD_sendOpCond>
     8de:	89 83       	std	Y+1, r24	; 0x01
     8e0:	8f e4       	ldi	r24, 0x4F	; 79
     8e2:	93 ec       	ldi	r25, 0xC3	; 195
     8e4:	01 97       	sbiw	r24, 0x01	; 1
     8e6:	f1 f7       	brne	.-4      	; 0x8e4 <SD_Init+0x5a>
     8e8:	00 c0       	rjmp	.+0      	; 0x8ea <SD_Init+0x60>
     8ea:	00 00       	nop
     8ec:	1f 5f       	subi	r17, 0xFF	; 255
     8ee:	89 81       	ldd	r24, Y+1	; 0x01
     8f0:	81 11       	cpse	r24, r1
     8f2:	ec cf       	rjmp	.-40     	; 0x8cc <SD_Init+0x42>
     8f4:	ce 01       	movw	r24, r28
     8f6:	01 96       	adiw	r24, 0x01	; 1
     8f8:	0e 94 e2 03 	call	0x7c4	; 0x7c4 <SD_readOCR>
     8fc:	8a 81       	ldd	r24, Y+2	; 0x02
     8fe:	88 23       	and	r24, r24
     900:	44 f0       	brlt	.+16     	; 0x912 <SD_Init+0x88>
     902:	14 e0       	ldi	r17, 0x04	; 4
     904:	07 c0       	rjmp	.+14     	; 0x914 <SD_Init+0x8a>
     906:	10 e0       	ldi	r17, 0x00	; 0
     908:	05 c0       	rjmp	.+10     	; 0x914 <SD_Init+0x8a>
     90a:	12 e0       	ldi	r17, 0x02	; 2
     90c:	03 c0       	rjmp	.+6      	; 0x914 <SD_Init+0x8a>
     90e:	13 e0       	ldi	r17, 0x03	; 3
     910:	01 c0       	rjmp	.+2      	; 0x914 <SD_Init+0x8a>
     912:	15 e0       	ldi	r17, 0x05	; 5
     914:	81 2f       	mov	r24, r17
     916:	0f 90       	pop	r0
     918:	0f 90       	pop	r0
     91a:	0f 90       	pop	r0
     91c:	0f 90       	pop	r0
     91e:	0f 90       	pop	r0
     920:	df 91       	pop	r29
     922:	cf 91       	pop	r28
     924:	1f 91       	pop	r17
     926:	0f 91       	pop	r16
     928:	08 95       	ret

0000092a <SD_RSB>:
     92a:	cf 92       	push	r12
     92c:	df 92       	push	r13
     92e:	ef 92       	push	r14
     930:	ff 92       	push	r15
     932:	0f 93       	push	r16
     934:	1f 93       	push	r17
     936:	cf 93       	push	r28
     938:	df 93       	push	r29
     93a:	ec 01       	movw	r28, r24
     93c:	6a 01       	movw	r12, r20
     93e:	7b 01       	movw	r14, r22
     940:	87 e9       	ldi	r24, 0x97	; 151
     942:	9a e3       	ldi	r25, 0x3A	; 58
     944:	01 97       	sbiw	r24, 0x01	; 1
     946:	f1 f7       	brne	.-4      	; 0x944 <SD_RSB+0x1a>
     948:	00 c0       	rjmp	.+0      	; 0x94a <SD_RSB+0x20>
     94a:	00 00       	nop
     94c:	8f ef       	ldi	r24, 0xFF	; 255
     94e:	91 e0       	ldi	r25, 0x01	; 1
     950:	fe 01       	movw	r30, r28
     952:	9c 01       	movw	r18, r24
     954:	11 92       	st	Z+, r1
     956:	21 50       	subi	r18, 0x01	; 1
     958:	30 40       	sbci	r19, 0x00	; 0
     95a:	e1 f7       	brne	.-8      	; 0x954 <SD_RSB+0x2a>
     95c:	8f ef       	ldi	r24, 0xFF	; 255
     95e:	0e 94 d6 01 	call	0x3ac	; 0x3ac <SPI_transfer>
     962:	8b b3       	in	r24, 0x1b	; 27
     964:	8e 7f       	andi	r24, 0xFE	; 254
     966:	8b bb       	out	0x1b, r24	; 27
     968:	8f ef       	ldi	r24, 0xFF	; 255
     96a:	0e 94 d6 01 	call	0x3ac	; 0x3ac <SPI_transfer>
     96e:	20 e0       	ldi	r18, 0x00	; 0
     970:	b7 01       	movw	r22, r14
     972:	a6 01       	movw	r20, r12
     974:	81 e1       	ldi	r24, 0x11	; 17
     976:	0e 94 35 03 	call	0x66a	; 0x66a <SD_Command>
     97a:	0e 94 75 03 	call	0x6ea	; 0x6ea <SD_readRes1>
     97e:	d8 2e       	mov	r13, r24
     980:	3f ef       	ldi	r19, 0xFF	; 255
     982:	83 13       	cpse	r24, r19
     984:	07 c0       	rjmp	.+14     	; 0x994 <SD_RSB+0x6a>
     986:	2a c0       	rjmp	.+84     	; 0x9dc <SD_RSB+0xb2>
     988:	8f ef       	ldi	r24, 0xFF	; 255
     98a:	0e 94 d6 01 	call	0x3ac	; 0x3ac <SPI_transfer>
     98e:	8f 3f       	cpi	r24, 0xFF	; 255
     990:	21 f0       	breq	.+8      	; 0x99a <SD_RSB+0x70>
     992:	09 c0       	rjmp	.+18     	; 0x9a6 <SD_RSB+0x7c>
     994:	00 e0       	ldi	r16, 0x00	; 0
     996:	10 e0       	ldi	r17, 0x00	; 0
     998:	80 e0       	ldi	r24, 0x00	; 0
     99a:	0f 5f       	subi	r16, 0xFF	; 255
     99c:	1f 4f       	sbci	r17, 0xFF	; 255
     99e:	04 32       	cpi	r16, 0x24	; 36
     9a0:	94 ef       	ldi	r25, 0xF4	; 244
     9a2:	19 07       	cpc	r17, r25
     9a4:	89 f7       	brne	.-30     	; 0x988 <SD_RSB+0x5e>
     9a6:	8e 3f       	cpi	r24, 0xFE	; 254
     9a8:	c9 f4       	brne	.+50     	; 0x9dc <SD_RSB+0xb2>
     9aa:	0c c0       	rjmp	.+24     	; 0x9c4 <SD_RSB+0x9a>
     9ac:	7e 01       	movw	r14, r28
     9ae:	ef ef       	ldi	r30, 0xFF	; 255
     9b0:	ee 1a       	sub	r14, r30
     9b2:	fe 0a       	sbc	r15, r30
     9b4:	8f ef       	ldi	r24, 0xFF	; 255
     9b6:	0e 94 d6 01 	call	0x3ac	; 0x3ac <SPI_transfer>
     9ba:	88 83       	st	Y, r24
     9bc:	0f 5f       	subi	r16, 0xFF	; 255
     9be:	1f 4f       	sbci	r17, 0xFF	; 255
     9c0:	e7 01       	movw	r28, r14
     9c2:	02 c0       	rjmp	.+4      	; 0x9c8 <SD_RSB+0x9e>
     9c4:	00 e0       	ldi	r16, 0x00	; 0
     9c6:	10 e0       	ldi	r17, 0x00	; 0
     9c8:	01 15       	cp	r16, r1
     9ca:	f2 e0       	ldi	r31, 0x02	; 2
     9cc:	1f 07       	cpc	r17, r31
     9ce:	70 f3       	brcs	.-36     	; 0x9ac <SD_RSB+0x82>
     9d0:	8f ef       	ldi	r24, 0xFF	; 255
     9d2:	0e 94 d6 01 	call	0x3ac	; 0x3ac <SPI_transfer>
     9d6:	8f ef       	ldi	r24, 0xFF	; 255
     9d8:	0e 94 d6 01 	call	0x3ac	; 0x3ac <SPI_transfer>
     9dc:	8f ef       	ldi	r24, 0xFF	; 255
     9de:	0e 94 d6 01 	call	0x3ac	; 0x3ac <SPI_transfer>
     9e2:	8b b3       	in	r24, 0x1b	; 27
     9e4:	81 60       	ori	r24, 0x01	; 1
     9e6:	8b bb       	out	0x1b, r24	; 27
     9e8:	8f ef       	ldi	r24, 0xFF	; 255
     9ea:	0e 94 d6 01 	call	0x3ac	; 0x3ac <SPI_transfer>
     9ee:	8d 2d       	mov	r24, r13
     9f0:	df 91       	pop	r29
     9f2:	cf 91       	pop	r28
     9f4:	1f 91       	pop	r17
     9f6:	0f 91       	pop	r16
     9f8:	ff 90       	pop	r15
     9fa:	ef 90       	pop	r14
     9fc:	df 90       	pop	r13
     9fe:	cf 90       	pop	r12
     a00:	08 95       	ret

00000a02 <SD_WSB>:
     a02:	cf 92       	push	r12
     a04:	df 92       	push	r13
     a06:	ef 92       	push	r14
     a08:	ff 92       	push	r15
     a0a:	0f 93       	push	r16
     a0c:	1f 93       	push	r17
     a0e:	cf 93       	push	r28
     a10:	df 93       	push	r29
     a12:	8c 01       	movw	r16, r24
     a14:	6a 01       	movw	r12, r20
     a16:	7b 01       	movw	r14, r22
     a18:	87 ea       	ldi	r24, 0xA7	; 167
     a1a:	91 e6       	ldi	r25, 0x61	; 97
     a1c:	01 97       	sbiw	r24, 0x01	; 1
     a1e:	f1 f7       	brne	.-4      	; 0xa1c <SD_WSB+0x1a>
     a20:	00 c0       	rjmp	.+0      	; 0xa22 <SD_WSB+0x20>
     a22:	00 00       	nop
     a24:	8f ef       	ldi	r24, 0xFF	; 255
     a26:	0e 94 d6 01 	call	0x3ac	; 0x3ac <SPI_transfer>
     a2a:	8b b3       	in	r24, 0x1b	; 27
     a2c:	8e 7f       	andi	r24, 0xFE	; 254
     a2e:	8b bb       	out	0x1b, r24	; 27
     a30:	8f ef       	ldi	r24, 0xFF	; 255
     a32:	0e 94 d6 01 	call	0x3ac	; 0x3ac <SPI_transfer>
     a36:	20 e0       	ldi	r18, 0x00	; 0
     a38:	b7 01       	movw	r22, r14
     a3a:	a6 01       	movw	r20, r12
     a3c:	88 e1       	ldi	r24, 0x18	; 24
     a3e:	0e 94 35 03 	call	0x66a	; 0x66a <SD_Command>
     a42:	0e 94 75 03 	call	0x6ea	; 0x6ea <SD_readRes1>
     a46:	81 11       	cpse	r24, r1
     a48:	26 c0       	rjmp	.+76     	; 0xa96 <SD_WSB+0x94>
     a4a:	8e ef       	ldi	r24, 0xFE	; 254
     a4c:	0e 94 d6 01 	call	0x3ac	; 0x3ac <SPI_transfer>
     a50:	c0 e0       	ldi	r28, 0x00	; 0
     a52:	d0 e0       	ldi	r29, 0x00	; 0
     a54:	07 c0       	rjmp	.+14     	; 0xa64 <SD_WSB+0x62>
     a56:	f8 01       	movw	r30, r16
     a58:	ec 0f       	add	r30, r28
     a5a:	fd 1f       	adc	r31, r29
     a5c:	80 81       	ld	r24, Z
     a5e:	0e 94 d6 01 	call	0x3ac	; 0x3ac <SPI_transfer>
     a62:	21 96       	adiw	r28, 0x01	; 1
     a64:	c1 15       	cp	r28, r1
     a66:	92 e0       	ldi	r25, 0x02	; 2
     a68:	d9 07       	cpc	r29, r25
     a6a:	a8 f3       	brcs	.-22     	; 0xa56 <SD_WSB+0x54>
     a6c:	c1 2c       	mov	r12, r1
     a6e:	d1 2c       	mov	r13, r1
     a70:	76 01       	movw	r14, r12
     a72:	05 c0       	rjmp	.+10     	; 0xa7e <SD_WSB+0x7c>
     a74:	8f ef       	ldi	r24, 0xFF	; 255
     a76:	0e 94 d6 01 	call	0x3ac	; 0x3ac <SPI_transfer>
     a7a:	8f 3f       	cpi	r24, 0xFF	; 255
     a7c:	61 f4       	brne	.+24     	; 0xa96 <SD_WSB+0x94>
     a7e:	8f ef       	ldi	r24, 0xFF	; 255
     a80:	c8 1a       	sub	r12, r24
     a82:	d8 0a       	sbc	r13, r24
     a84:	e8 0a       	sbc	r14, r24
     a86:	f8 0a       	sbc	r15, r24
     a88:	94 e2       	ldi	r25, 0x24	; 36
     a8a:	c9 16       	cp	r12, r25
     a8c:	94 ef       	ldi	r25, 0xF4	; 244
     a8e:	d9 06       	cpc	r13, r25
     a90:	e1 04       	cpc	r14, r1
     a92:	f1 04       	cpc	r15, r1
     a94:	79 f7       	brne	.-34     	; 0xa74 <SD_WSB+0x72>
     a96:	df 91       	pop	r29
     a98:	cf 91       	pop	r28
     a9a:	1f 91       	pop	r17
     a9c:	0f 91       	pop	r16
     a9e:	ff 90       	pop	r15
     aa0:	ef 90       	pop	r14
     aa2:	df 90       	pop	r13
     aa4:	cf 90       	pop	r12
     aa6:	08 95       	ret

00000aa8 <FAT32_Init>:
     aa8:	cf 92       	push	r12
     aaa:	df 92       	push	r13
     aac:	ef 92       	push	r14
     aae:	ff 92       	push	r15
     ab0:	0f 93       	push	r16
     ab2:	1f 93       	push	r17
     ab4:	11 e0       	ldi	r17, 0x01	; 1
     ab6:	18 0f       	add	r17, r24
     ab8:	40 e0       	ldi	r20, 0x00	; 0
     aba:	50 e0       	ldi	r21, 0x00	; 0
     abc:	ba 01       	movw	r22, r20
     abe:	82 ef       	ldi	r24, 0xF2	; 242
     ac0:	90 e0       	ldi	r25, 0x00	; 0
     ac2:	0e 94 95 04 	call	0x92a	; 0x92a <SD_RSB>
     ac6:	20 e1       	ldi	r18, 0x10	; 16
     ac8:	12 9f       	mul	r17, r18
     aca:	c0 01       	movw	r24, r0
     acc:	11 24       	eor	r1, r1
     ace:	fc 01       	movw	r30, r24
     ad0:	ec 55       	subi	r30, 0x5C	; 92
     ad2:	fd 4f       	sbci	r31, 0xFD	; 253
     ad4:	20 81       	ld	r18, Z
     ad6:	2b 50       	subi	r18, 0x0B	; 11
     ad8:	22 30       	cpi	r18, 0x02	; 2
     ada:	d8 f5       	brcc	.+118    	; 0xb52 <FAT32_Init+0xaa>
     adc:	fc 01       	movw	r30, r24
     ade:	e8 55       	subi	r30, 0x58	; 88
     ae0:	fd 4f       	sbci	r31, 0xFD	; 253
     ae2:	20 81       	ld	r18, Z
     ae4:	fc 01       	movw	r30, r24
     ae6:	e7 55       	subi	r30, 0x57	; 87
     ae8:	fd 4f       	sbci	r31, 0xFD	; 253
     aea:	40 81       	ld	r20, Z
     aec:	50 e0       	ldi	r21, 0x00	; 0
     aee:	54 2f       	mov	r21, r20
     af0:	44 27       	eor	r20, r20
     af2:	05 2e       	mov	r0, r21
     af4:	00 0c       	add	r0, r0
     af6:	66 0b       	sbc	r22, r22
     af8:	77 0b       	sbc	r23, r23
     afa:	6a 01       	movw	r12, r20
     afc:	7b 01       	movw	r14, r22
     afe:	c2 0e       	add	r12, r18
     b00:	d1 1c       	adc	r13, r1
     b02:	e1 1c       	adc	r14, r1
     b04:	f1 1c       	adc	r15, r1
     b06:	fc 01       	movw	r30, r24
     b08:	e6 55       	subi	r30, 0x56	; 86
     b0a:	fd 4f       	sbci	r31, 0xFD	; 253
     b0c:	40 81       	ld	r20, Z
     b0e:	50 e0       	ldi	r21, 0x00	; 0
     b10:	60 e0       	ldi	r22, 0x00	; 0
     b12:	70 e0       	ldi	r23, 0x00	; 0
     b14:	ba 01       	movw	r22, r20
     b16:	55 27       	eor	r21, r21
     b18:	44 27       	eor	r20, r20
     b1a:	4c 0d       	add	r20, r12
     b1c:	5d 1d       	adc	r21, r13
     b1e:	6e 1d       	adc	r22, r14
     b20:	7f 1d       	adc	r23, r15
     b22:	fc 01       	movw	r30, r24
     b24:	e5 55       	subi	r30, 0x55	; 85
     b26:	fd 4f       	sbci	r31, 0xFD	; 253
     b28:	80 81       	ld	r24, Z
     b2a:	90 e0       	ldi	r25, 0x00	; 0
     b2c:	a0 e0       	ldi	r26, 0x00	; 0
     b2e:	b0 e0       	ldi	r27, 0x00	; 0
     b30:	b8 2f       	mov	r27, r24
     b32:	aa 27       	eor	r26, r26
     b34:	99 27       	eor	r25, r25
     b36:	88 27       	eor	r24, r24
     b38:	84 0f       	add	r24, r20
     b3a:	95 1f       	adc	r25, r21
     b3c:	a6 1f       	adc	r26, r22
     b3e:	b7 1f       	adc	r27, r23
     b40:	80 93 fd 02 	sts	0x02FD, r24	; 0x8002fd <LBA>
     b44:	90 93 fe 02 	sts	0x02FE, r25	; 0x8002fe <LBA+0x1>
     b48:	a0 93 ff 02 	sts	0x02FF, r26	; 0x8002ff <LBA+0x2>
     b4c:	b0 93 00 03 	sts	0x0300, r27	; 0x800300 <LBA+0x3>
     b50:	08 c0       	rjmp	.+16     	; 0xb62 <FAT32_Init+0xba>
     b52:	10 92 fd 02 	sts	0x02FD, r1	; 0x8002fd <LBA>
     b56:	10 92 fe 02 	sts	0x02FE, r1	; 0x8002fe <LBA+0x1>
     b5a:	10 92 ff 02 	sts	0x02FF, r1	; 0x8002ff <LBA+0x2>
     b5e:	10 92 00 03 	sts	0x0300, r1	; 0x800300 <LBA+0x3>
     b62:	40 91 fd 02 	lds	r20, 0x02FD	; 0x8002fd <LBA>
     b66:	50 91 fe 02 	lds	r21, 0x02FE	; 0x8002fe <LBA+0x1>
     b6a:	60 91 ff 02 	lds	r22, 0x02FF	; 0x8002ff <LBA+0x2>
     b6e:	70 91 00 03 	lds	r23, 0x0300	; 0x800300 <LBA+0x3>
     b72:	82 ef       	ldi	r24, 0xF2	; 242
     b74:	90 e0       	ldi	r25, 0x00	; 0
     b76:	0e 94 95 04 	call	0x92a	; 0x92a <SD_RSB>
     b7a:	80 91 f1 02 	lds	r24, 0x02F1	; 0x8002f1 <month>
     b7e:	8a 3a       	cpi	r24, 0xAA	; 170
     b80:	09 f0       	breq	.+2      	; 0xb84 <FAT32_Init+0xdc>
     b82:	76 c0       	rjmp	.+236    	; 0xc70 <FAT32_Init+0x1c8>
     b84:	80 91 f0 02 	lds	r24, 0x02F0	; 0x8002f0 <DataBuff+0x1fe>
     b88:	85 35       	cpi	r24, 0x55	; 85
     b8a:	09 f0       	breq	.+2      	; 0xb8e <FAT32_Init+0xe6>
     b8c:	71 c0       	rjmp	.+226    	; 0xc70 <FAT32_Init+0x1c8>
     b8e:	e2 ef       	ldi	r30, 0xF2	; 242
     b90:	f0 e0       	ldi	r31, 0x00	; 0
     b92:	85 85       	ldd	r24, Z+13	; 0x0d
     b94:	90 e0       	ldi	r25, 0x00	; 0
     b96:	a0 e0       	ldi	r26, 0x00	; 0
     b98:	b0 e0       	ldi	r27, 0x00	; 0
     b9a:	80 93 01 03 	sts	0x0301, r24	; 0x800301 <SecsPerClust>
     b9e:	90 93 02 03 	sts	0x0302, r25	; 0x800302 <SecsPerClust+0x1>
     ba2:	a0 93 03 03 	sts	0x0303, r26	; 0x800303 <SecsPerClust+0x2>
     ba6:	b0 93 04 03 	sts	0x0304, r27	; 0x800304 <SecsPerClust+0x3>
     baa:	c7 84       	ldd	r12, Z+15	; 0x0f
     bac:	d1 2c       	mov	r13, r1
     bae:	dc 2c       	mov	r13, r12
     bb0:	cc 24       	eor	r12, r12
     bb2:	86 85       	ldd	r24, Z+14	; 0x0e
     bb4:	c8 0e       	add	r12, r24
     bb6:	d1 1c       	adc	r13, r1
     bb8:	0d 2c       	mov	r0, r13
     bba:	00 0c       	add	r0, r0
     bbc:	ee 08       	sbc	r14, r14
     bbe:	ff 08       	sbc	r15, r15
     bc0:	80 91 fd 02 	lds	r24, 0x02FD	; 0x8002fd <LBA>
     bc4:	90 91 fe 02 	lds	r25, 0x02FE	; 0x8002fe <LBA+0x1>
     bc8:	a0 91 ff 02 	lds	r26, 0x02FF	; 0x8002ff <LBA+0x2>
     bcc:	b0 91 00 03 	lds	r27, 0x0300	; 0x800300 <LBA+0x3>
     bd0:	c8 0e       	add	r12, r24
     bd2:	d9 1e       	adc	r13, r25
     bd4:	ea 1e       	adc	r14, r26
     bd6:	fb 1e       	adc	r15, r27
     bd8:	c0 92 05 03 	sts	0x0305, r12	; 0x800305 <FATStartSec>
     bdc:	d0 92 06 03 	sts	0x0306, r13	; 0x800306 <FATStartSec+0x1>
     be0:	e0 92 07 03 	sts	0x0307, r14	; 0x800307 <FATStartSec+0x2>
     be4:	f0 92 08 03 	sts	0x0308, r15	; 0x800308 <FATStartSec+0x3>
     be8:	26 a1       	ldd	r18, Z+38	; 0x26
     bea:	82 2f       	mov	r24, r18
     bec:	90 e0       	ldi	r25, 0x00	; 0
     bee:	a0 e0       	ldi	r26, 0x00	; 0
     bf0:	b0 e0       	ldi	r27, 0x00	; 0
     bf2:	bc 01       	movw	r22, r24
     bf4:	55 27       	eor	r21, r21
     bf6:	44 27       	eor	r20, r20
     bf8:	85 a1       	ldd	r24, Z+37	; 0x25
     bfa:	90 e0       	ldi	r25, 0x00	; 0
     bfc:	98 2f       	mov	r25, r24
     bfe:	88 27       	eor	r24, r24
     c00:	48 0f       	add	r20, r24
     c02:	59 1f       	adc	r21, r25
     c04:	61 1d       	adc	r22, r1
     c06:	71 1d       	adc	r23, r1
     c08:	84 a1       	ldd	r24, Z+36	; 0x24
     c0a:	9a 01       	movw	r18, r20
     c0c:	ab 01       	movw	r20, r22
     c0e:	28 0f       	add	r18, r24
     c10:	31 1d       	adc	r19, r1
     c12:	41 1d       	adc	r20, r1
     c14:	51 1d       	adc	r21, r1
     c16:	a0 89       	ldd	r26, Z+16	; 0x10
     c18:	b0 e0       	ldi	r27, 0x00	; 0
     c1a:	0e 94 54 0e 	call	0x1ca8	; 0x1ca8 <__muluhisi3>
     c1e:	60 93 da 00 	sts	0x00DA, r22	; 0x8000da <FatSecs>
     c22:	70 93 db 00 	sts	0x00DB, r23	; 0x8000db <FatSecs+0x1>
     c26:	80 93 dc 00 	sts	0x00DC, r24	; 0x8000dc <FatSecs+0x2>
     c2a:	90 93 dd 00 	sts	0x00DD, r25	; 0x8000dd <FatSecs+0x3>
     c2e:	dc 01       	movw	r26, r24
     c30:	cb 01       	movw	r24, r22
     c32:	8c 0d       	add	r24, r12
     c34:	9d 1d       	adc	r25, r13
     c36:	ae 1d       	adc	r26, r14
     c38:	bf 1d       	adc	r27, r15
     c3a:	80 93 f4 02 	sts	0x02F4, r24	; 0x8002f4 <RootDirSec>
     c3e:	90 93 f5 02 	sts	0x02F5, r25	; 0x8002f5 <RootDirSec+0x1>
     c42:	a0 93 f6 02 	sts	0x02F6, r26	; 0x8002f6 <RootDirSec+0x2>
     c46:	b0 93 f7 02 	sts	0x02F7, r27	; 0x8002f7 <RootDirSec+0x3>
     c4a:	84 85       	ldd	r24, Z+12	; 0x0c
     c4c:	90 e0       	ldi	r25, 0x00	; 0
     c4e:	98 2f       	mov	r25, r24
     c50:	88 27       	eor	r24, r24
     c52:	23 85       	ldd	r18, Z+11	; 0x0b
     c54:	82 0f       	add	r24, r18
     c56:	91 1d       	adc	r25, r1
     c58:	09 2e       	mov	r0, r25
     c5a:	00 0c       	add	r0, r0
     c5c:	aa 0b       	sbc	r26, r26
     c5e:	bb 0b       	sbc	r27, r27
     c60:	80 93 10 03 	sts	0x0310, r24	; 0x800310 <BytesPerSec>
     c64:	90 93 11 03 	sts	0x0311, r25	; 0x800311 <BytesPerSec+0x1>
     c68:	a0 93 12 03 	sts	0x0312, r26	; 0x800312 <BytesPerSec+0x2>
     c6c:	b0 93 13 03 	sts	0x0313, r27	; 0x800313 <BytesPerSec+0x3>
     c70:	80 e0       	ldi	r24, 0x00	; 0
     c72:	1f 91       	pop	r17
     c74:	0f 91       	pop	r16
     c76:	ff 90       	pop	r15
     c78:	ef 90       	pop	r14
     c7a:	df 90       	pop	r13
     c7c:	cf 90       	pop	r12
     c7e:	08 95       	ret

00000c80 <FAT32_FILE_Open>:
     c80:	4f 92       	push	r4
     c82:	5f 92       	push	r5
     c84:	6f 92       	push	r6
     c86:	7f 92       	push	r7
     c88:	8f 92       	push	r8
     c8a:	9f 92       	push	r9
     c8c:	af 92       	push	r10
     c8e:	bf 92       	push	r11
     c90:	ef 92       	push	r14
     c92:	ff 92       	push	r15
     c94:	0f 93       	push	r16
     c96:	1f 93       	push	r17
     c98:	cf 93       	push	r28
     c9a:	df 93       	push	r29
     c9c:	ec 01       	movw	r28, r24
     c9e:	e1 2c       	mov	r14, r1
     ca0:	f1 2c       	mov	r15, r1
     ca2:	01 e0       	ldi	r16, 0x01	; 1
     ca4:	10 e0       	ldi	r17, 0x00	; 0
     ca6:	5c c0       	rjmp	.+184    	; 0xd60 <FAT32_FILE_Open+0xe0>
     ca8:	40 91 f4 02 	lds	r20, 0x02F4	; 0x8002f4 <RootDirSec>
     cac:	50 91 f5 02 	lds	r21, 0x02F5	; 0x8002f5 <RootDirSec+0x1>
     cb0:	60 91 f6 02 	lds	r22, 0x02F6	; 0x8002f6 <RootDirSec+0x2>
     cb4:	70 91 f7 02 	lds	r23, 0x02F7	; 0x8002f7 <RootDirSec+0x3>
     cb8:	48 0d       	add	r20, r8
     cba:	59 1d       	adc	r21, r9
     cbc:	6a 1d       	adc	r22, r10
     cbe:	7b 1d       	adc	r23, r11
     cc0:	82 ef       	ldi	r24, 0xF2	; 242
     cc2:	90 e0       	ldi	r25, 0x00	; 0
     cc4:	0e 94 95 04 	call	0x92a	; 0x92a <SD_RSB>
     cc8:	20 e0       	ldi	r18, 0x00	; 0
     cca:	30 e0       	ldi	r19, 0x00	; 0
     ccc:	3c c0       	rjmp	.+120    	; 0xd46 <FAT32_FILE_Open+0xc6>
     cce:	f9 01       	movw	r30, r18
     cd0:	ee 50       	subi	r30, 0x0E	; 14
     cd2:	ff 4f       	sbci	r31, 0xFF	; 255
     cd4:	90 81       	ld	r25, Z
     cd6:	88 81       	ld	r24, Y
     cd8:	98 17       	cp	r25, r24
     cda:	99 f0       	breq	.+38     	; 0xd02 <FAT32_FILE_Open+0x82>
     cdc:	01 e0       	ldi	r16, 0x01	; 1
     cde:	10 e0       	ldi	r17, 0x00	; 0
     ce0:	2d c0       	rjmp	.+90     	; 0xd3c <FAT32_FILE_Open+0xbc>
     ce2:	f9 01       	movw	r30, r18
     ce4:	e8 0f       	add	r30, r24
     ce6:	f9 1f       	adc	r31, r25
     ce8:	ee 50       	subi	r30, 0x0E	; 14
     cea:	ff 4f       	sbci	r31, 0xFF	; 255
     cec:	50 81       	ld	r21, Z
     cee:	fe 01       	movw	r30, r28
     cf0:	e8 0f       	add	r30, r24
     cf2:	f9 1f       	adc	r31, r25
     cf4:	40 81       	ld	r20, Z
     cf6:	54 17       	cp	r21, r20
     cf8:	11 f0       	breq	.+4      	; 0xcfe <FAT32_FILE_Open+0x7e>
     cfa:	00 e0       	ldi	r16, 0x00	; 0
     cfc:	10 e0       	ldi	r17, 0x00	; 0
     cfe:	01 96       	adiw	r24, 0x01	; 1
     d00:	04 c0       	rjmp	.+8      	; 0xd0a <FAT32_FILE_Open+0x8a>
     d02:	80 e0       	ldi	r24, 0x00	; 0
     d04:	90 e0       	ldi	r25, 0x00	; 0
     d06:	01 e0       	ldi	r16, 0x01	; 1
     d08:	10 e0       	ldi	r17, 0x00	; 0
     d0a:	fe 01       	movw	r30, r28
     d0c:	01 90       	ld	r0, Z+
     d0e:	00 20       	and	r0, r0
     d10:	e9 f7       	brne	.-6      	; 0xd0c <FAT32_FILE_Open+0x8c>
     d12:	31 97       	sbiw	r30, 0x01	; 1
     d14:	ec 1b       	sub	r30, r28
     d16:	fd 0b       	sbc	r31, r29
     d18:	8e 17       	cp	r24, r30
     d1a:	9f 07       	cpc	r25, r31
     d1c:	10 f3       	brcs	.-60     	; 0xce2 <FAT32_FILE_Open+0x62>
     d1e:	01 15       	cp	r16, r1
     d20:	11 05       	cpc	r17, r1
     d22:	49 f0       	breq	.+18     	; 0xd36 <FAT32_FILE_Open+0xb6>
     d24:	30 93 d3 00 	sts	0x00D3, r19	; 0x8000d3 <__data_end+0x1>
     d28:	20 93 d2 00 	sts	0x00D2, r18	; 0x8000d2 <__data_end>
     d2c:	24 01       	movw	r4, r8
     d2e:	35 01       	movw	r6, r10
     d30:	02 e0       	ldi	r16, 0x02	; 2
     d32:	10 e0       	ldi	r17, 0x00	; 0
     d34:	0d c0       	rjmp	.+26     	; 0xd50 <FAT32_FILE_Open+0xd0>
     d36:	02 30       	cpi	r16, 0x02	; 2
     d38:	11 05       	cpc	r17, r1
     d3a:	51 f0       	breq	.+20     	; 0xd50 <FAT32_FILE_Open+0xd0>
     d3c:	02 30       	cpi	r16, 0x02	; 2
     d3e:	11 05       	cpc	r17, r1
     d40:	39 f0       	breq	.+14     	; 0xd50 <FAT32_FILE_Open+0xd0>
     d42:	2f 5f       	subi	r18, 0xFF	; 255
     d44:	3f 4f       	sbci	r19, 0xFF	; 255
     d46:	20 3e       	cpi	r18, 0xE0	; 224
     d48:	81 e0       	ldi	r24, 0x01	; 1
     d4a:	38 07       	cpc	r19, r24
     d4c:	08 f4       	brcc	.+2      	; 0xd50 <FAT32_FILE_Open+0xd0>
     d4e:	bf cf       	rjmp	.-130    	; 0xcce <FAT32_FILE_Open+0x4e>
     d50:	02 30       	cpi	r16, 0x02	; 2
     d52:	11 05       	cpc	r17, r1
     d54:	b1 f0       	breq	.+44     	; 0xd82 <FAT32_FILE_Open+0x102>
     d56:	8f ef       	ldi	r24, 0xFF	; 255
     d58:	e8 1a       	sub	r14, r24
     d5a:	f8 0a       	sbc	r15, r24
     d5c:	00 e0       	ldi	r16, 0x00	; 0
     d5e:	10 e0       	ldi	r17, 0x00	; 0
     d60:	47 01       	movw	r8, r14
     d62:	a1 2c       	mov	r10, r1
     d64:	b1 2c       	mov	r11, r1
     d66:	80 91 01 03 	lds	r24, 0x0301	; 0x800301 <SecsPerClust>
     d6a:	90 91 02 03 	lds	r25, 0x0302	; 0x800302 <SecsPerClust+0x1>
     d6e:	a0 91 03 03 	lds	r26, 0x0303	; 0x800303 <SecsPerClust+0x2>
     d72:	b0 91 04 03 	lds	r27, 0x0304	; 0x800304 <SecsPerClust+0x3>
     d76:	88 16       	cp	r8, r24
     d78:	99 06       	cpc	r9, r25
     d7a:	aa 06       	cpc	r10, r26
     d7c:	bb 06       	cpc	r11, r27
     d7e:	08 f4       	brcc	.+2      	; 0xd82 <FAT32_FILE_Open+0x102>
     d80:	93 cf       	rjmp	.-218    	; 0xca8 <FAT32_FILE_Open+0x28>
     d82:	02 30       	cpi	r16, 0x02	; 2
     d84:	11 05       	cpc	r17, r1
     d86:	09 f0       	breq	.+2      	; 0xd8a <FAT32_FILE_Open+0x10a>
     d88:	58 c0       	rjmp	.+176    	; 0xe3a <FAT32_FILE_Open+0x1ba>
     d8a:	d3 01       	movw	r26, r6
     d8c:	c2 01       	movw	r24, r4
     d8e:	07 2e       	mov	r0, r23
     d90:	79 e0       	ldi	r23, 0x09	; 9
     d92:	88 0f       	add	r24, r24
     d94:	99 1f       	adc	r25, r25
     d96:	aa 1f       	adc	r26, r26
     d98:	bb 1f       	adc	r27, r27
     d9a:	7a 95       	dec	r23
     d9c:	d1 f7       	brne	.-12     	; 0xd92 <FAT32_FILE_Open+0x112>
     d9e:	70 2d       	mov	r23, r0
     da0:	e0 91 d2 00 	lds	r30, 0x00D2	; 0x8000d2 <__data_end>
     da4:	f0 91 d3 00 	lds	r31, 0x00D3	; 0x8000d3 <__data_end+0x1>
     da8:	8e 0f       	add	r24, r30
     daa:	9f 1f       	adc	r25, r31
     dac:	a1 1d       	adc	r26, r1
     dae:	b1 1d       	adc	r27, r1
     db0:	80 93 f9 02 	sts	0x02F9, r24	; 0x8002f9 <FILELocationInRootDir>
     db4:	90 93 fa 02 	sts	0x02FA, r25	; 0x8002fa <FILELocationInRootDir+0x1>
     db8:	a0 93 fb 02 	sts	0x02FB, r26	; 0x8002fb <FILELocationInRootDir+0x2>
     dbc:	b0 93 fc 02 	sts	0x02FC, r27	; 0x8002fc <FILELocationInRootDir+0x3>
     dc0:	df 01       	movw	r26, r30
     dc2:	a9 5f       	subi	r26, 0xF9	; 249
     dc4:	be 4f       	sbci	r27, 0xFE	; 254
     dc6:	4c 91       	ld	r20, X
     dc8:	50 e0       	ldi	r21, 0x00	; 0
     dca:	60 e0       	ldi	r22, 0x00	; 0
     dcc:	70 e0       	ldi	r23, 0x00	; 0
     dce:	9a 01       	movw	r18, r20
     dd0:	11 27       	eor	r17, r17
     dd2:	00 27       	eor	r16, r16
     dd4:	df 01       	movw	r26, r30
     dd6:	aa 5f       	subi	r26, 0xFA	; 250
     dd8:	be 4f       	sbci	r27, 0xFE	; 254
     dda:	8c 91       	ld	r24, X
     ddc:	90 e0       	ldi	r25, 0x00	; 0
     dde:	98 2f       	mov	r25, r24
     de0:	88 27       	eor	r24, r24
     de2:	92 95       	swap	r25
     de4:	90 7f       	andi	r25, 0xF0	; 240
     de6:	09 2e       	mov	r0, r25
     de8:	00 0c       	add	r0, r0
     dea:	aa 0b       	sbc	r26, r26
     dec:	bb 0b       	sbc	r27, r27
     dee:	ac 01       	movw	r20, r24
     df0:	bd 01       	movw	r22, r26
     df2:	40 0f       	add	r20, r16
     df4:	51 1f       	adc	r21, r17
     df6:	62 1f       	adc	r22, r18
     df8:	73 1f       	adc	r23, r19
     dfa:	df 01       	movw	r26, r30
     dfc:	a3 5f       	subi	r26, 0xF3	; 243
     dfe:	be 4f       	sbci	r27, 0xFE	; 254
     e00:	8c 91       	ld	r24, X
     e02:	90 e0       	ldi	r25, 0x00	; 0
     e04:	98 2f       	mov	r25, r24
     e06:	88 27       	eor	r24, r24
     e08:	09 2e       	mov	r0, r25
     e0a:	00 0c       	add	r0, r0
     e0c:	aa 0b       	sbc	r26, r26
     e0e:	bb 0b       	sbc	r27, r27
     e10:	84 0f       	add	r24, r20
     e12:	95 1f       	adc	r25, r21
     e14:	a6 1f       	adc	r26, r22
     e16:	b7 1f       	adc	r27, r23
     e18:	e4 5f       	subi	r30, 0xF4	; 244
     e1a:	fe 4f       	sbci	r31, 0xFE	; 254
     e1c:	20 81       	ld	r18, Z
     e1e:	82 0f       	add	r24, r18
     e20:	91 1d       	adc	r25, r1
     e22:	a1 1d       	adc	r26, r1
     e24:	b1 1d       	adc	r27, r1
     e26:	80 93 14 03 	sts	0x0314, r24	; 0x800314 <FirstClustAddr>
     e2a:	90 93 15 03 	sts	0x0315, r25	; 0x800315 <FirstClustAddr+0x1>
     e2e:	a0 93 16 03 	sts	0x0316, r26	; 0x800316 <FirstClustAddr+0x2>
     e32:	b0 93 17 03 	sts	0x0317, r27	; 0x800317 <FirstClustAddr+0x3>
     e36:	80 e0       	ldi	r24, 0x00	; 0
     e38:	01 c0       	rjmp	.+2      	; 0xe3c <FAT32_FILE_Open+0x1bc>
     e3a:	81 e0       	ldi	r24, 0x01	; 1
     e3c:	df 91       	pop	r29
     e3e:	cf 91       	pop	r28
     e40:	1f 91       	pop	r17
     e42:	0f 91       	pop	r16
     e44:	ff 90       	pop	r15
     e46:	ef 90       	pop	r14
     e48:	bf 90       	pop	r11
     e4a:	af 90       	pop	r10
     e4c:	9f 90       	pop	r9
     e4e:	8f 90       	pop	r8
     e50:	7f 90       	pop	r7
     e52:	6f 90       	pop	r6
     e54:	5f 90       	pop	r5
     e56:	4f 90       	pop	r4
     e58:	08 95       	ret

00000e5a <FAT32_FILE_Read_Sector_In_Cluster>:
     e5a:	2f 92       	push	r2
     e5c:	3f 92       	push	r3
     e5e:	4f 92       	push	r4
     e60:	5f 92       	push	r5
     e62:	6f 92       	push	r6
     e64:	7f 92       	push	r7
     e66:	8f 92       	push	r8
     e68:	9f 92       	push	r9
     e6a:	af 92       	push	r10
     e6c:	bf 92       	push	r11
     e6e:	cf 92       	push	r12
     e70:	df 92       	push	r13
     e72:	ef 92       	push	r14
     e74:	ff 92       	push	r15
     e76:	0f 93       	push	r16
     e78:	1f 93       	push	r17
     e7a:	cf 93       	push	r28
     e7c:	df 93       	push	r29
     e7e:	82 2e       	mov	r8, r18
     e80:	91 2c       	mov	r9, r1
     e82:	a1 2c       	mov	r10, r1
     e84:	b1 2c       	mov	r11, r1
     e86:	00 91 01 03 	lds	r16, 0x0301	; 0x800301 <SecsPerClust>
     e8a:	10 91 02 03 	lds	r17, 0x0302	; 0x800302 <SecsPerClust+0x1>
     e8e:	20 91 03 03 	lds	r18, 0x0303	; 0x800303 <SecsPerClust+0x2>
     e92:	30 91 04 03 	lds	r19, 0x0304	; 0x800304 <SecsPerClust+0x3>
     e96:	80 16       	cp	r8, r16
     e98:	91 06       	cpc	r9, r17
     e9a:	a2 06       	cpc	r10, r18
     e9c:	b3 06       	cpc	r11, r19
     e9e:	08 f0       	brcs	.+2      	; 0xea2 <FAT32_FILE_Read_Sector_In_Cluster+0x48>
     ea0:	e9 c0       	rjmp	.+466    	; 0x1074 <FAT32_FILE_Read_Sector_In_Cluster+0x21a>
     ea2:	2a 01       	movw	r4, r20
     ea4:	3b 01       	movw	r6, r22
     ea6:	0e 94 40 06 	call	0xc80	; 0xc80 <FAT32_FILE_Open>
     eaa:	81 11       	cpse	r24, r1
     eac:	e5 c0       	rjmp	.+458    	; 0x1078 <FAT32_FILE_Read_Sector_In_Cluster+0x21e>
     eae:	c0 90 14 03 	lds	r12, 0x0314	; 0x800314 <FirstClustAddr>
     eb2:	d0 90 15 03 	lds	r13, 0x0315	; 0x800315 <FirstClustAddr+0x1>
     eb6:	e0 90 16 03 	lds	r14, 0x0316	; 0x800316 <FirstClustAddr+0x2>
     eba:	f0 90 17 03 	lds	r15, 0x0317	; 0x800317 <FirstClustAddr+0x3>
     ebe:	c0 e0       	ldi	r28, 0x00	; 0
     ec0:	d0 e0       	ldi	r29, 0x00	; 0
     ec2:	90 c0       	rjmp	.+288    	; 0xfe4 <FAT32_FILE_Read_Sector_In_Cluster+0x18a>
     ec4:	d7 01       	movw	r26, r14
     ec6:	c6 01       	movw	r24, r12
     ec8:	68 94       	set
     eca:	16 f8       	bld	r1, 6
     ecc:	b6 95       	lsr	r27
     ece:	a7 95       	ror	r26
     ed0:	97 95       	ror	r25
     ed2:	87 95       	ror	r24
     ed4:	16 94       	lsr	r1
     ed6:	d1 f7       	brne	.-12     	; 0xecc <FAT32_FILE_Read_Sector_In_Cluster+0x72>
     ed8:	38 2e       	mov	r3, r24
     eda:	33 0c       	add	r3, r3
     edc:	21 2c       	mov	r2, r1
     ede:	a6 01       	movw	r20, r12
     ee0:	dd 20       	and	r13, r13
     ee2:	14 f4       	brge	.+4      	; 0xee8 <FAT32_FILE_Read_Sector_In_Cluster+0x8e>
     ee4:	41 58       	subi	r20, 0x81	; 129
     ee6:	5f 4f       	sbci	r21, 0xFF	; 255
     ee8:	44 0f       	add	r20, r20
     eea:	45 2f       	mov	r20, r21
     eec:	44 1f       	adc	r20, r20
     eee:	55 0b       	sbc	r21, r21
     ef0:	05 2e       	mov	r0, r21
     ef2:	00 0c       	add	r0, r0
     ef4:	66 0b       	sbc	r22, r22
     ef6:	77 0b       	sbc	r23, r23
     ef8:	80 91 05 03 	lds	r24, 0x0305	; 0x800305 <FATStartSec>
     efc:	90 91 06 03 	lds	r25, 0x0306	; 0x800306 <FATStartSec+0x1>
     f00:	a0 91 07 03 	lds	r26, 0x0307	; 0x800307 <FATStartSec+0x2>
     f04:	b0 91 08 03 	lds	r27, 0x0308	; 0x800308 <FATStartSec+0x3>
     f08:	48 0f       	add	r20, r24
     f0a:	59 1f       	adc	r21, r25
     f0c:	6a 1f       	adc	r22, r26
     f0e:	7b 1f       	adc	r23, r27
     f10:	82 ef       	ldi	r24, 0xF2	; 242
     f12:	90 e0       	ldi	r25, 0x00	; 0
     f14:	0e 94 95 04 	call	0x92a	; 0x92a <SD_RSB>
     f18:	a1 01       	movw	r20, r2
     f1a:	33 0c       	add	r3, r3
     f1c:	66 0b       	sbc	r22, r22
     f1e:	77 0b       	sbc	r23, r23
     f20:	d7 01       	movw	r26, r14
     f22:	c6 01       	movw	r24, r12
     f24:	88 0f       	add	r24, r24
     f26:	99 1f       	adc	r25, r25
     f28:	aa 1f       	adc	r26, r26
     f2a:	bb 1f       	adc	r27, r27
     f2c:	88 0f       	add	r24, r24
     f2e:	99 1f       	adc	r25, r25
     f30:	aa 1f       	adc	r26, r26
     f32:	bb 1f       	adc	r27, r27
     f34:	84 1b       	sub	r24, r20
     f36:	95 0b       	sbc	r25, r21
     f38:	a6 0b       	sbc	r26, r22
     f3a:	b7 0b       	sbc	r27, r23
     f3c:	fc 01       	movw	r30, r24
     f3e:	ee 50       	subi	r30, 0x0E	; 14
     f40:	ff 4f       	sbci	r31, 0xFF	; 255
     f42:	20 81       	ld	r18, Z
     f44:	ac 01       	movw	r20, r24
     f46:	bd 01       	movw	r22, r26
     f48:	4f 5f       	subi	r20, 0xFF	; 255
     f4a:	5f 4f       	sbci	r21, 0xFF	; 255
     f4c:	6f 4f       	sbci	r22, 0xFF	; 255
     f4e:	7f 4f       	sbci	r23, 0xFF	; 255
     f50:	fa 01       	movw	r30, r20
     f52:	ee 50       	subi	r30, 0x0E	; 14
     f54:	ff 4f       	sbci	r31, 0xFF	; 255
     f56:	40 81       	ld	r20, Z
     f58:	50 e0       	ldi	r21, 0x00	; 0
     f5a:	60 e0       	ldi	r22, 0x00	; 0
     f5c:	70 e0       	ldi	r23, 0x00	; 0
     f5e:	76 2f       	mov	r23, r22
     f60:	65 2f       	mov	r22, r21
     f62:	54 2f       	mov	r21, r20
     f64:	44 27       	eor	r20, r20
     f66:	42 0f       	add	r20, r18
     f68:	51 1d       	adc	r21, r1
     f6a:	61 1d       	adc	r22, r1
     f6c:	71 1d       	adc	r23, r1
     f6e:	8c 01       	movw	r16, r24
     f70:	9d 01       	movw	r18, r26
     f72:	0e 5f       	subi	r16, 0xFE	; 254
     f74:	1f 4f       	sbci	r17, 0xFF	; 255
     f76:	2f 4f       	sbci	r18, 0xFF	; 255
     f78:	3f 4f       	sbci	r19, 0xFF	; 255
     f7a:	f8 01       	movw	r30, r16
     f7c:	ee 50       	subi	r30, 0x0E	; 14
     f7e:	ff 4f       	sbci	r31, 0xFF	; 255
     f80:	00 81       	ld	r16, Z
     f82:	10 e0       	ldi	r17, 0x00	; 0
     f84:	20 e0       	ldi	r18, 0x00	; 0
     f86:	30 e0       	ldi	r19, 0x00	; 0
     f88:	98 01       	movw	r18, r16
     f8a:	11 27       	eor	r17, r17
     f8c:	00 27       	eor	r16, r16
     f8e:	40 0f       	add	r20, r16
     f90:	51 1f       	adc	r21, r17
     f92:	62 1f       	adc	r22, r18
     f94:	73 1f       	adc	r23, r19
     f96:	03 96       	adiw	r24, 0x03	; 3
     f98:	a1 1d       	adc	r26, r1
     f9a:	b1 1d       	adc	r27, r1
     f9c:	fc 01       	movw	r30, r24
     f9e:	ee 50       	subi	r30, 0x0E	; 14
     fa0:	ff 4f       	sbci	r31, 0xFF	; 255
     fa2:	00 81       	ld	r16, Z
     fa4:	10 e0       	ldi	r17, 0x00	; 0
     fa6:	20 e0       	ldi	r18, 0x00	; 0
     fa8:	30 e0       	ldi	r19, 0x00	; 0
     faa:	30 2f       	mov	r19, r16
     fac:	22 27       	eor	r18, r18
     fae:	11 27       	eor	r17, r17
     fb0:	00 27       	eor	r16, r16
     fb2:	40 0f       	add	r20, r16
     fb4:	51 1f       	adc	r21, r17
     fb6:	62 1f       	adc	r22, r18
     fb8:	73 1f       	adc	r23, r19
     fba:	db 01       	movw	r26, r22
     fbc:	ca 01       	movw	r24, r20
     fbe:	01 97       	sbiw	r24, 0x01	; 1
     fc0:	a1 09       	sbc	r26, r1
     fc2:	b1 09       	sbc	r27, r1
     fc4:	8e 3f       	cpi	r24, 0xFE	; 254
     fc6:	9f 4f       	sbci	r25, 0xFF	; 255
     fc8:	af 4f       	sbci	r26, 0xFF	; 255
     fca:	bf 40       	sbci	r27, 0x0F	; 15
     fcc:	88 f4       	brcc	.+34     	; 0xff0 <FAT32_FILE_Read_Sector_In_Cluster+0x196>
     fce:	ce 01       	movw	r24, r28
     fd0:	a0 e0       	ldi	r26, 0x00	; 0
     fd2:	b0 e0       	ldi	r27, 0x00	; 0
     fd4:	48 16       	cp	r4, r24
     fd6:	59 06       	cpc	r5, r25
     fd8:	6a 06       	cpc	r6, r26
     fda:	7b 06       	cpc	r7, r27
     fdc:	4c f0       	brlt	.+18     	; 0xff0 <FAT32_FILE_Read_Sector_In_Cluster+0x196>
     fde:	21 96       	adiw	r28, 0x01	; 1
     fe0:	6a 01       	movw	r12, r20
     fe2:	7b 01       	movw	r14, r22
     fe4:	41 14       	cp	r4, r1
     fe6:	51 04       	cpc	r5, r1
     fe8:	61 04       	cpc	r6, r1
     fea:	71 04       	cpc	r7, r1
     fec:	09 f0       	breq	.+2      	; 0xff0 <FAT32_FILE_Read_Sector_In_Cluster+0x196>
     fee:	6a cf       	rjmp	.-300    	; 0xec4 <FAT32_FILE_Read_Sector_In_Cluster+0x6a>
     ff0:	ce 01       	movw	r24, r28
     ff2:	a0 e0       	ldi	r26, 0x00	; 0
     ff4:	b0 e0       	ldi	r27, 0x00	; 0
     ff6:	84 15       	cp	r24, r4
     ff8:	95 05       	cpc	r25, r5
     ffa:	a6 05       	cpc	r26, r6
     ffc:	b7 05       	cpc	r27, r7
     ffe:	54 f4       	brge	.+20     	; 0x1014 <FAT32_FILE_Read_Sector_In_Cluster+0x1ba>
    1000:	40 e0       	ldi	r20, 0x00	; 0
    1002:	52 e0       	ldi	r21, 0x02	; 2
    1004:	6f ef       	ldi	r22, 0xFF	; 255
    1006:	70 e0       	ldi	r23, 0x00	; 0
    1008:	82 ef       	ldi	r24, 0xF2	; 242
    100a:	90 e0       	ldi	r25, 0x00	; 0
    100c:	0e 94 6e 0e 	call	0x1cdc	; 0x1cdc <memset>
    1010:	82 e0       	ldi	r24, 0x02	; 2
    1012:	33 c0       	rjmp	.+102    	; 0x107a <FAT32_FILE_Read_Sector_In_Cluster+0x220>
    1014:	82 e0       	ldi	r24, 0x02	; 2
    1016:	c8 1a       	sub	r12, r24
    1018:	d1 08       	sbc	r13, r1
    101a:	e1 08       	sbc	r14, r1
    101c:	88 ef       	ldi	r24, 0xF8	; 248
    101e:	f8 0a       	sbc	r15, r24
    1020:	cc 0c       	add	r12, r12
    1022:	dd 1c       	adc	r13, r13
    1024:	ee 1c       	adc	r14, r14
    1026:	ff 1c       	adc	r15, r15
    1028:	cc 0c       	add	r12, r12
    102a:	dd 1c       	adc	r13, r13
    102c:	ee 1c       	adc	r14, r14
    102e:	ff 1c       	adc	r15, r15
    1030:	cc 0c       	add	r12, r12
    1032:	dd 1c       	adc	r13, r13
    1034:	ee 1c       	adc	r14, r14
    1036:	ff 1c       	adc	r15, r15
    1038:	cc 0c       	add	r12, r12
    103a:	dd 1c       	adc	r13, r13
    103c:	ee 1c       	adc	r14, r14
    103e:	ff 1c       	adc	r15, r15
    1040:	cc 0c       	add	r12, r12
    1042:	dd 1c       	adc	r13, r13
    1044:	ee 1c       	adc	r14, r14
    1046:	ff 1c       	adc	r15, r15
    1048:	40 91 f4 02 	lds	r20, 0x02F4	; 0x8002f4 <RootDirSec>
    104c:	50 91 f5 02 	lds	r21, 0x02F5	; 0x8002f5 <RootDirSec+0x1>
    1050:	60 91 f6 02 	lds	r22, 0x02F6	; 0x8002f6 <RootDirSec+0x2>
    1054:	70 91 f7 02 	lds	r23, 0x02F7	; 0x8002f7 <RootDirSec+0x3>
    1058:	4c 0d       	add	r20, r12
    105a:	5d 1d       	adc	r21, r13
    105c:	6e 1d       	adc	r22, r14
    105e:	7f 1d       	adc	r23, r15
    1060:	48 0d       	add	r20, r8
    1062:	59 1d       	adc	r21, r9
    1064:	6a 1d       	adc	r22, r10
    1066:	7b 1d       	adc	r23, r11
    1068:	82 ef       	ldi	r24, 0xF2	; 242
    106a:	90 e0       	ldi	r25, 0x00	; 0
    106c:	0e 94 95 04 	call	0x92a	; 0x92a <SD_RSB>
    1070:	80 e0       	ldi	r24, 0x00	; 0
    1072:	03 c0       	rjmp	.+6      	; 0x107a <FAT32_FILE_Read_Sector_In_Cluster+0x220>
    1074:	83 e0       	ldi	r24, 0x03	; 3
    1076:	01 c0       	rjmp	.+2      	; 0x107a <FAT32_FILE_Read_Sector_In_Cluster+0x220>
    1078:	81 e0       	ldi	r24, 0x01	; 1
    107a:	df 91       	pop	r29
    107c:	cf 91       	pop	r28
    107e:	1f 91       	pop	r17
    1080:	0f 91       	pop	r16
    1082:	ff 90       	pop	r15
    1084:	ef 90       	pop	r14
    1086:	df 90       	pop	r13
    1088:	cf 90       	pop	r12
    108a:	bf 90       	pop	r11
    108c:	af 90       	pop	r10
    108e:	9f 90       	pop	r9
    1090:	8f 90       	pop	r8
    1092:	7f 90       	pop	r7
    1094:	6f 90       	pop	r6
    1096:	5f 90       	pop	r5
    1098:	4f 90       	pop	r4
    109a:	3f 90       	pop	r3
    109c:	2f 90       	pop	r2
    109e:	08 95       	ret

000010a0 <FAT32_FILE_Write_Sector_In_Cluster>:
    10a0:	2f 92       	push	r2
    10a2:	3f 92       	push	r3
    10a4:	4f 92       	push	r4
    10a6:	5f 92       	push	r5
    10a8:	6f 92       	push	r6
    10aa:	7f 92       	push	r7
    10ac:	8f 92       	push	r8
    10ae:	9f 92       	push	r9
    10b0:	af 92       	push	r10
    10b2:	bf 92       	push	r11
    10b4:	cf 92       	push	r12
    10b6:	df 92       	push	r13
    10b8:	ef 92       	push	r14
    10ba:	ff 92       	push	r15
    10bc:	0f 93       	push	r16
    10be:	1f 93       	push	r17
    10c0:	cf 93       	push	r28
    10c2:	df 93       	push	r29
    10c4:	ec 01       	movw	r28, r24
    10c6:	2a 01       	movw	r4, r20
    10c8:	3b 01       	movw	r6, r22
    10ca:	82 2e       	mov	r8, r18
    10cc:	91 2c       	mov	r9, r1
    10ce:	a1 2c       	mov	r10, r1
    10d0:	b1 2c       	mov	r11, r1
    10d2:	40 91 f4 02 	lds	r20, 0x02F4	; 0x8002f4 <RootDirSec>
    10d6:	50 91 f5 02 	lds	r21, 0x02F5	; 0x8002f5 <RootDirSec+0x1>
    10da:	60 91 f6 02 	lds	r22, 0x02F6	; 0x8002f6 <RootDirSec+0x2>
    10de:	70 91 f7 02 	lds	r23, 0x02F7	; 0x8002f7 <RootDirSec+0x3>
    10e2:	48 0d       	add	r20, r8
    10e4:	59 1d       	adc	r21, r9
    10e6:	6a 1d       	adc	r22, r10
    10e8:	7b 1d       	adc	r23, r11
    10ea:	40 5c       	subi	r20, 0xC0	; 192
    10ec:	51 4c       	sbci	r21, 0xC1	; 193
    10ee:	6f 4f       	sbci	r22, 0xFF	; 255
    10f0:	7f 4f       	sbci	r23, 0xFF	; 255
    10f2:	82 ef       	ldi	r24, 0xF2	; 242
    10f4:	90 e0       	ldi	r25, 0x00	; 0
    10f6:	0e 94 01 05 	call	0xa02	; 0xa02 <SD_WSB>
    10fa:	2f e3       	ldi	r18, 0x3F	; 63
    10fc:	8d e0       	ldi	r24, 0x0D	; 13
    10fe:	93 e0       	ldi	r25, 0x03	; 3
    1100:	21 50       	subi	r18, 0x01	; 1
    1102:	80 40       	sbci	r24, 0x00	; 0
    1104:	90 40       	sbci	r25, 0x00	; 0
    1106:	e1 f7       	brne	.-8      	; 0x1100 <FAT32_FILE_Write_Sector_In_Cluster+0x60>
    1108:	00 c0       	rjmp	.+0      	; 0x110a <FAT32_FILE_Write_Sector_In_Cluster+0x6a>
    110a:	00 00       	nop
    110c:	80 91 01 03 	lds	r24, 0x0301	; 0x800301 <SecsPerClust>
    1110:	90 91 02 03 	lds	r25, 0x0302	; 0x800302 <SecsPerClust+0x1>
    1114:	a0 91 03 03 	lds	r26, 0x0303	; 0x800303 <SecsPerClust+0x2>
    1118:	b0 91 04 03 	lds	r27, 0x0304	; 0x800304 <SecsPerClust+0x3>
    111c:	88 16       	cp	r8, r24
    111e:	99 06       	cpc	r9, r25
    1120:	aa 06       	cpc	r10, r26
    1122:	bb 06       	cpc	r11, r27
    1124:	08 f0       	brcs	.+2      	; 0x1128 <FAT32_FILE_Write_Sector_In_Cluster+0x88>
    1126:	fd c0       	rjmp	.+506    	; 0x1322 <FAT32_FILE_Write_Sector_In_Cluster+0x282>
    1128:	ce 01       	movw	r24, r28
    112a:	0e 94 40 06 	call	0xc80	; 0xc80 <FAT32_FILE_Open>
    112e:	c8 2f       	mov	r28, r24
    1130:	81 11       	cpse	r24, r1
    1132:	f9 c0       	rjmp	.+498    	; 0x1326 <FAT32_FILE_Write_Sector_In_Cluster+0x286>
    1134:	c0 90 14 03 	lds	r12, 0x0314	; 0x800314 <FirstClustAddr>
    1138:	d0 90 15 03 	lds	r13, 0x0315	; 0x800315 <FirstClustAddr+0x1>
    113c:	e0 90 16 03 	lds	r14, 0x0316	; 0x800316 <FirstClustAddr+0x2>
    1140:	f0 90 17 03 	lds	r15, 0x0317	; 0x800317 <FirstClustAddr+0x3>
    1144:	d0 e0       	ldi	r29, 0x00	; 0
    1146:	91 c0       	rjmp	.+290    	; 0x126a <FAT32_FILE_Write_Sector_In_Cluster+0x1ca>
    1148:	d7 01       	movw	r26, r14
    114a:	c6 01       	movw	r24, r12
    114c:	68 94       	set
    114e:	16 f8       	bld	r1, 6
    1150:	b6 95       	lsr	r27
    1152:	a7 95       	ror	r26
    1154:	97 95       	ror	r25
    1156:	87 95       	ror	r24
    1158:	16 94       	lsr	r1
    115a:	d1 f7       	brne	.-12     	; 0x1150 <FAT32_FILE_Write_Sector_In_Cluster+0xb0>
    115c:	38 2e       	mov	r3, r24
    115e:	33 0c       	add	r3, r3
    1160:	21 2c       	mov	r2, r1
    1162:	a6 01       	movw	r20, r12
    1164:	dd 20       	and	r13, r13
    1166:	14 f4       	brge	.+4      	; 0x116c <FAT32_FILE_Write_Sector_In_Cluster+0xcc>
    1168:	41 58       	subi	r20, 0x81	; 129
    116a:	5f 4f       	sbci	r21, 0xFF	; 255
    116c:	44 0f       	add	r20, r20
    116e:	45 2f       	mov	r20, r21
    1170:	44 1f       	adc	r20, r20
    1172:	55 0b       	sbc	r21, r21
    1174:	05 2e       	mov	r0, r21
    1176:	00 0c       	add	r0, r0
    1178:	66 0b       	sbc	r22, r22
    117a:	77 0b       	sbc	r23, r23
    117c:	80 91 05 03 	lds	r24, 0x0305	; 0x800305 <FATStartSec>
    1180:	90 91 06 03 	lds	r25, 0x0306	; 0x800306 <FATStartSec+0x1>
    1184:	a0 91 07 03 	lds	r26, 0x0307	; 0x800307 <FATStartSec+0x2>
    1188:	b0 91 08 03 	lds	r27, 0x0308	; 0x800308 <FATStartSec+0x3>
    118c:	48 0f       	add	r20, r24
    118e:	59 1f       	adc	r21, r25
    1190:	6a 1f       	adc	r22, r26
    1192:	7b 1f       	adc	r23, r27
    1194:	82 ef       	ldi	r24, 0xF2	; 242
    1196:	90 e0       	ldi	r25, 0x00	; 0
    1198:	0e 94 95 04 	call	0x92a	; 0x92a <SD_RSB>
    119c:	a1 01       	movw	r20, r2
    119e:	33 0c       	add	r3, r3
    11a0:	66 0b       	sbc	r22, r22
    11a2:	77 0b       	sbc	r23, r23
    11a4:	d7 01       	movw	r26, r14
    11a6:	c6 01       	movw	r24, r12
    11a8:	88 0f       	add	r24, r24
    11aa:	99 1f       	adc	r25, r25
    11ac:	aa 1f       	adc	r26, r26
    11ae:	bb 1f       	adc	r27, r27
    11b0:	88 0f       	add	r24, r24
    11b2:	99 1f       	adc	r25, r25
    11b4:	aa 1f       	adc	r26, r26
    11b6:	bb 1f       	adc	r27, r27
    11b8:	84 1b       	sub	r24, r20
    11ba:	95 0b       	sbc	r25, r21
    11bc:	a6 0b       	sbc	r26, r22
    11be:	b7 0b       	sbc	r27, r23
    11c0:	fc 01       	movw	r30, r24
    11c2:	ee 50       	subi	r30, 0x0E	; 14
    11c4:	ff 4f       	sbci	r31, 0xFF	; 255
    11c6:	50 81       	ld	r21, Z
    11c8:	8c 01       	movw	r16, r24
    11ca:	9d 01       	movw	r18, r26
    11cc:	0f 5f       	subi	r16, 0xFF	; 255
    11ce:	1f 4f       	sbci	r17, 0xFF	; 255
    11d0:	2f 4f       	sbci	r18, 0xFF	; 255
    11d2:	3f 4f       	sbci	r19, 0xFF	; 255
    11d4:	f8 01       	movw	r30, r16
    11d6:	ee 50       	subi	r30, 0x0E	; 14
    11d8:	ff 4f       	sbci	r31, 0xFF	; 255
    11da:	00 81       	ld	r16, Z
    11dc:	10 e0       	ldi	r17, 0x00	; 0
    11de:	20 e0       	ldi	r18, 0x00	; 0
    11e0:	30 e0       	ldi	r19, 0x00	; 0
    11e2:	32 2f       	mov	r19, r18
    11e4:	21 2f       	mov	r18, r17
    11e6:	10 2f       	mov	r17, r16
    11e8:	00 27       	eor	r16, r16
    11ea:	05 0f       	add	r16, r21
    11ec:	11 1d       	adc	r17, r1
    11ee:	21 1d       	adc	r18, r1
    11f0:	31 1d       	adc	r19, r1
    11f2:	ac 01       	movw	r20, r24
    11f4:	bd 01       	movw	r22, r26
    11f6:	4e 5f       	subi	r20, 0xFE	; 254
    11f8:	5f 4f       	sbci	r21, 0xFF	; 255
    11fa:	6f 4f       	sbci	r22, 0xFF	; 255
    11fc:	7f 4f       	sbci	r23, 0xFF	; 255
    11fe:	fa 01       	movw	r30, r20
    1200:	ee 50       	subi	r30, 0x0E	; 14
    1202:	ff 4f       	sbci	r31, 0xFF	; 255
    1204:	40 81       	ld	r20, Z
    1206:	50 e0       	ldi	r21, 0x00	; 0
    1208:	60 e0       	ldi	r22, 0x00	; 0
    120a:	70 e0       	ldi	r23, 0x00	; 0
    120c:	ba 01       	movw	r22, r20
    120e:	55 27       	eor	r21, r21
    1210:	44 27       	eor	r20, r20
    1212:	04 0f       	add	r16, r20
    1214:	15 1f       	adc	r17, r21
    1216:	26 1f       	adc	r18, r22
    1218:	37 1f       	adc	r19, r23
    121a:	03 96       	adiw	r24, 0x03	; 3
    121c:	a1 1d       	adc	r26, r1
    121e:	b1 1d       	adc	r27, r1
    1220:	fc 01       	movw	r30, r24
    1222:	ee 50       	subi	r30, 0x0E	; 14
    1224:	ff 4f       	sbci	r31, 0xFF	; 255
    1226:	40 81       	ld	r20, Z
    1228:	50 e0       	ldi	r21, 0x00	; 0
    122a:	60 e0       	ldi	r22, 0x00	; 0
    122c:	70 e0       	ldi	r23, 0x00	; 0
    122e:	74 2f       	mov	r23, r20
    1230:	66 27       	eor	r22, r22
    1232:	55 27       	eor	r21, r21
    1234:	44 27       	eor	r20, r20
    1236:	40 0f       	add	r20, r16
    1238:	51 1f       	adc	r21, r17
    123a:	62 1f       	adc	r22, r18
    123c:	73 1f       	adc	r23, r19
    123e:	db 01       	movw	r26, r22
    1240:	ca 01       	movw	r24, r20
    1242:	01 97       	sbiw	r24, 0x01	; 1
    1244:	a1 09       	sbc	r26, r1
    1246:	b1 09       	sbc	r27, r1
    1248:	8e 3f       	cpi	r24, 0xFE	; 254
    124a:	9f 4f       	sbci	r25, 0xFF	; 255
    124c:	af 4f       	sbci	r26, 0xFF	; 255
    124e:	bf 40       	sbci	r27, 0x0F	; 15
    1250:	90 f4       	brcc	.+36     	; 0x1276 <FAT32_FILE_Write_Sector_In_Cluster+0x1d6>
    1252:	8d 2f       	mov	r24, r29
    1254:	90 e0       	ldi	r25, 0x00	; 0
    1256:	a0 e0       	ldi	r26, 0x00	; 0
    1258:	b0 e0       	ldi	r27, 0x00	; 0
    125a:	48 16       	cp	r4, r24
    125c:	59 06       	cpc	r5, r25
    125e:	6a 06       	cpc	r6, r26
    1260:	7b 06       	cpc	r7, r27
    1262:	4c f0       	brlt	.+18     	; 0x1276 <FAT32_FILE_Write_Sector_In_Cluster+0x1d6>
    1264:	df 5f       	subi	r29, 0xFF	; 255
    1266:	6a 01       	movw	r12, r20
    1268:	7b 01       	movw	r14, r22
    126a:	41 14       	cp	r4, r1
    126c:	51 04       	cpc	r5, r1
    126e:	61 04       	cpc	r6, r1
    1270:	71 04       	cpc	r7, r1
    1272:	09 f0       	breq	.+2      	; 0x1276 <FAT32_FILE_Write_Sector_In_Cluster+0x1d6>
    1274:	69 cf       	rjmp	.-302    	; 0x1148 <FAT32_FILE_Write_Sector_In_Cluster+0xa8>
    1276:	8d 2f       	mov	r24, r29
    1278:	90 e0       	ldi	r25, 0x00	; 0
    127a:	a0 e0       	ldi	r26, 0x00	; 0
    127c:	b0 e0       	ldi	r27, 0x00	; 0
    127e:	84 15       	cp	r24, r4
    1280:	95 05       	cpc	r25, r5
    1282:	a6 05       	cpc	r26, r6
    1284:	b7 05       	cpc	r27, r7
    1286:	54 f4       	brge	.+20     	; 0x129c <FAT32_FILE_Write_Sector_In_Cluster+0x1fc>
    1288:	40 e0       	ldi	r20, 0x00	; 0
    128a:	52 e0       	ldi	r21, 0x02	; 2
    128c:	6f ef       	ldi	r22, 0xFF	; 255
    128e:	70 e0       	ldi	r23, 0x00	; 0
    1290:	82 ef       	ldi	r24, 0xF2	; 242
    1292:	90 e0       	ldi	r25, 0x00	; 0
    1294:	0e 94 6e 0e 	call	0x1cdc	; 0x1cdc <memset>
    1298:	c2 e0       	ldi	r28, 0x02	; 2
    129a:	46 c0       	rjmp	.+140    	; 0x1328 <FAT32_FILE_Write_Sector_In_Cluster+0x288>
    129c:	40 91 f4 02 	lds	r20, 0x02F4	; 0x8002f4 <RootDirSec>
    12a0:	50 91 f5 02 	lds	r21, 0x02F5	; 0x8002f5 <RootDirSec+0x1>
    12a4:	60 91 f6 02 	lds	r22, 0x02F6	; 0x8002f6 <RootDirSec+0x2>
    12a8:	70 91 f7 02 	lds	r23, 0x02F7	; 0x8002f7 <RootDirSec+0x3>
    12ac:	48 0d       	add	r20, r8
    12ae:	59 1d       	adc	r21, r9
    12b0:	6a 1d       	adc	r22, r10
    12b2:	7b 1d       	adc	r23, r11
    12b4:	40 5c       	subi	r20, 0xC0	; 192
    12b6:	51 4c       	sbci	r21, 0xC1	; 193
    12b8:	6f 4f       	sbci	r22, 0xFF	; 255
    12ba:	7f 4f       	sbci	r23, 0xFF	; 255
    12bc:	82 ef       	ldi	r24, 0xF2	; 242
    12be:	90 e0       	ldi	r25, 0x00	; 0
    12c0:	0e 94 95 04 	call	0x92a	; 0x92a <SD_RSB>
    12c4:	82 e0       	ldi	r24, 0x02	; 2
    12c6:	c8 1a       	sub	r12, r24
    12c8:	d1 08       	sbc	r13, r1
    12ca:	e1 08       	sbc	r14, r1
    12cc:	88 ef       	ldi	r24, 0xF8	; 248
    12ce:	f8 0a       	sbc	r15, r24
    12d0:	cc 0c       	add	r12, r12
    12d2:	dd 1c       	adc	r13, r13
    12d4:	ee 1c       	adc	r14, r14
    12d6:	ff 1c       	adc	r15, r15
    12d8:	cc 0c       	add	r12, r12
    12da:	dd 1c       	adc	r13, r13
    12dc:	ee 1c       	adc	r14, r14
    12de:	ff 1c       	adc	r15, r15
    12e0:	cc 0c       	add	r12, r12
    12e2:	dd 1c       	adc	r13, r13
    12e4:	ee 1c       	adc	r14, r14
    12e6:	ff 1c       	adc	r15, r15
    12e8:	cc 0c       	add	r12, r12
    12ea:	dd 1c       	adc	r13, r13
    12ec:	ee 1c       	adc	r14, r14
    12ee:	ff 1c       	adc	r15, r15
    12f0:	cc 0c       	add	r12, r12
    12f2:	dd 1c       	adc	r13, r13
    12f4:	ee 1c       	adc	r14, r14
    12f6:	ff 1c       	adc	r15, r15
    12f8:	40 91 f4 02 	lds	r20, 0x02F4	; 0x8002f4 <RootDirSec>
    12fc:	50 91 f5 02 	lds	r21, 0x02F5	; 0x8002f5 <RootDirSec+0x1>
    1300:	60 91 f6 02 	lds	r22, 0x02F6	; 0x8002f6 <RootDirSec+0x2>
    1304:	70 91 f7 02 	lds	r23, 0x02F7	; 0x8002f7 <RootDirSec+0x3>
    1308:	4c 0d       	add	r20, r12
    130a:	5d 1d       	adc	r21, r13
    130c:	6e 1d       	adc	r22, r14
    130e:	7f 1d       	adc	r23, r15
    1310:	48 0d       	add	r20, r8
    1312:	59 1d       	adc	r21, r9
    1314:	6a 1d       	adc	r22, r10
    1316:	7b 1d       	adc	r23, r11
    1318:	82 ef       	ldi	r24, 0xF2	; 242
    131a:	90 e0       	ldi	r25, 0x00	; 0
    131c:	0e 94 01 05 	call	0xa02	; 0xa02 <SD_WSB>
    1320:	03 c0       	rjmp	.+6      	; 0x1328 <FAT32_FILE_Write_Sector_In_Cluster+0x288>
    1322:	c3 e0       	ldi	r28, 0x03	; 3
    1324:	01 c0       	rjmp	.+2      	; 0x1328 <FAT32_FILE_Write_Sector_In_Cluster+0x288>
    1326:	c1 e0       	ldi	r28, 0x01	; 1
    1328:	8c 2f       	mov	r24, r28
    132a:	df 91       	pop	r29
    132c:	cf 91       	pop	r28
    132e:	1f 91       	pop	r17
    1330:	0f 91       	pop	r16
    1332:	ff 90       	pop	r15
    1334:	ef 90       	pop	r14
    1336:	df 90       	pop	r13
    1338:	cf 90       	pop	r12
    133a:	bf 90       	pop	r11
    133c:	af 90       	pop	r10
    133e:	9f 90       	pop	r9
    1340:	8f 90       	pop	r8
    1342:	7f 90       	pop	r7
    1344:	6f 90       	pop	r6
    1346:	5f 90       	pop	r5
    1348:	4f 90       	pop	r4
    134a:	3f 90       	pop	r3
    134c:	2f 90       	pop	r2
    134e:	08 95       	ret

00001350 <SSD1306_Invert>:
    1350:	81 30       	cpi	r24, 0x01	; 1
    1352:	91 05       	cpc	r25, r1
    1354:	21 f4       	brne	.+8      	; 0x135e <SSD1306_Invert+0xe>
    1356:	87 ea       	ldi	r24, 0xA7	; 167
    1358:	0e 94 45 02 	call	0x48a	; 0x48a <I2C_Write>
    135c:	08 95       	ret
    135e:	89 2b       	or	r24, r25
    1360:	19 f4       	brne	.+6      	; 0x1368 <SSD1306_Invert+0x18>
    1362:	86 ea       	ldi	r24, 0xA6	; 166
    1364:	0e 94 45 02 	call	0x48a	; 0x48a <I2C_Write>
    1368:	08 95       	ret

0000136a <SSD1306_Contrast>:
    136a:	cf 93       	push	r28
    136c:	c8 2f       	mov	r28, r24
    136e:	81 e8       	ldi	r24, 0x81	; 129
    1370:	0e 94 45 02 	call	0x48a	; 0x48a <I2C_Write>
    1374:	8c 2f       	mov	r24, r28
    1376:	0e 94 45 02 	call	0x48a	; 0x48a <I2C_Write>
    137a:	cf 91       	pop	r28
    137c:	08 95       	ret

0000137e <SSD1306_SetCursor>:
    137e:	cf 93       	push	r28
    1380:	df 93       	push	r29
    1382:	88 30       	cpi	r24, 0x08	; 8
    1384:	d0 f4       	brcc	.+52     	; 0x13ba <SSD1306_SetCursor+0x3c>
    1386:	66 23       	and	r22, r22
    1388:	c4 f0       	brlt	.+48     	; 0x13ba <SSD1306_SetCursor+0x3c>
    138a:	d6 2f       	mov	r29, r22
    138c:	c8 2f       	mov	r28, r24
    138e:	80 93 d5 00 	sts	0x00D5, r24	; 0x8000d5 <SSD1306lineNumber>
    1392:	60 93 d4 00 	sts	0x00D4, r22	; 0x8000d4 <SSD1306cursorPos>
    1396:	81 e2       	ldi	r24, 0x21	; 33
    1398:	0e 94 45 02 	call	0x48a	; 0x48a <I2C_Write>
    139c:	8d 2f       	mov	r24, r29
    139e:	0e 94 45 02 	call	0x48a	; 0x48a <I2C_Write>
    13a2:	8f e7       	ldi	r24, 0x7F	; 127
    13a4:	0e 94 45 02 	call	0x48a	; 0x48a <I2C_Write>
    13a8:	82 e2       	ldi	r24, 0x22	; 34
    13aa:	0e 94 45 02 	call	0x48a	; 0x48a <I2C_Write>
    13ae:	8c 2f       	mov	r24, r28
    13b0:	0e 94 45 02 	call	0x48a	; 0x48a <I2C_Write>
    13b4:	87 e0       	ldi	r24, 0x07	; 7
    13b6:	0e 94 45 02 	call	0x48a	; 0x48a <I2C_Write>
    13ba:	df 91       	pop	r29
    13bc:	cf 91       	pop	r28
    13be:	08 95       	ret

000013c0 <SSD1306_Clear>:
    13c0:	0f 93       	push	r16
    13c2:	1f 93       	push	r17
    13c4:	cf 93       	push	r28
    13c6:	88 e7       	ldi	r24, 0x78	; 120
    13c8:	0e 94 fc 01 	call	0x3f8	; 0x3f8 <I2C_Start_NORETURN>
    13cc:	60 e0       	ldi	r22, 0x00	; 0
    13ce:	80 e0       	ldi	r24, 0x00	; 0
    13d0:	0e 94 bf 09 	call	0x137e	; 0x137e <SSD1306_SetCursor>
    13d4:	00 e0       	ldi	r16, 0x00	; 0
    13d6:	10 e0       	ldi	r17, 0x00	; 0
    13d8:	17 c0       	rjmp	.+46     	; 0x1408 <SSD1306_Clear+0x48>
    13da:	88 e7       	ldi	r24, 0x78	; 120
    13dc:	0e 94 fc 01 	call	0x3f8	; 0x3f8 <I2C_Start_NORETURN>
    13e0:	80 e4       	ldi	r24, 0x40	; 64
    13e2:	0e 94 45 02 	call	0x48a	; 0x48a <I2C_Write>
    13e6:	c0 e0       	ldi	r28, 0x00	; 0
    13e8:	0b c0       	rjmp	.+22     	; 0x1400 <SSD1306_Clear+0x40>
    13ea:	80 e0       	ldi	r24, 0x00	; 0
    13ec:	0e 94 45 02 	call	0x48a	; 0x48a <I2C_Write>
    13f0:	84 e8       	ldi	r24, 0x84	; 132
    13f2:	86 bf       	out	0x36, r24	; 54
    13f4:	06 b6       	in	r0, 0x36	; 54
    13f6:	07 fe       	sbrs	r0, 7
    13f8:	fd cf       	rjmp	.-6      	; 0x13f4 <SSD1306_Clear+0x34>
    13fa:	0f 5f       	subi	r16, 0xFF	; 255
    13fc:	1f 4f       	sbci	r17, 0xFF	; 255
    13fe:	cf 5f       	subi	r28, 0xFF	; 255
    1400:	c0 31       	cpi	r28, 0x10	; 16
    1402:	98 f3       	brcs	.-26     	; 0x13ea <SSD1306_Clear+0x2a>
    1404:	0e 94 25 02 	call	0x44a	; 0x44a <I2C_Stop>
    1408:	01 15       	cp	r16, r1
    140a:	82 e0       	ldi	r24, 0x02	; 2
    140c:	18 07       	cpc	r17, r24
    140e:	28 f3       	brcs	.-54     	; 0x13da <SSD1306_Clear+0x1a>
    1410:	cf 91       	pop	r28
    1412:	1f 91       	pop	r17
    1414:	0f 91       	pop	r16
    1416:	08 95       	ret

00001418 <SSD1306_Init>:
    1418:	1f 93       	push	r17
    141a:	cf 93       	push	r28
    141c:	df 93       	push	r29
    141e:	ec 01       	movw	r28, r24
    1420:	16 2f       	mov	r17, r22
    1422:	81 b3       	in	r24, 0x11	; 17
    1424:	80 6f       	ori	r24, 0xF0	; 240
    1426:	81 bb       	out	0x11, r24	; 17
    1428:	82 b3       	in	r24, 0x12	; 18
    142a:	80 6f       	ori	r24, 0xF0	; 240
    142c:	82 bb       	out	0x12, r24	; 18
    142e:	2f e7       	ldi	r18, 0x7F	; 127
    1430:	8a e1       	ldi	r24, 0x1A	; 26
    1432:	96 e0       	ldi	r25, 0x06	; 6
    1434:	21 50       	subi	r18, 0x01	; 1
    1436:	80 40       	sbci	r24, 0x00	; 0
    1438:	90 40       	sbci	r25, 0x00	; 0
    143a:	e1 f7       	brne	.-8      	; 0x1434 <SSD1306_Init+0x1c>
    143c:	00 c0       	rjmp	.+0      	; 0x143e <SSD1306_Init+0x26>
    143e:	00 00       	nop
    1440:	88 e7       	ldi	r24, 0x78	; 120
    1442:	0e 94 2b 02 	call	0x456	; 0x456 <I2C_Start_Wait>
    1446:	8e ea       	ldi	r24, 0xAE	; 174
    1448:	0e 94 45 02 	call	0x48a	; 0x48a <I2C_Write>
    144c:	85 ed       	ldi	r24, 0xD5	; 213
    144e:	0e 94 45 02 	call	0x48a	; 0x48a <I2C_Write>
    1452:	80 ef       	ldi	r24, 0xF0	; 240
    1454:	0e 94 45 02 	call	0x48a	; 0x48a <I2C_Write>
    1458:	88 ea       	ldi	r24, 0xA8	; 168
    145a:	0e 94 45 02 	call	0x48a	; 0x48a <I2C_Write>
    145e:	8f e3       	ldi	r24, 0x3F	; 63
    1460:	0e 94 45 02 	call	0x48a	; 0x48a <I2C_Write>
    1464:	83 ed       	ldi	r24, 0xD3	; 211
    1466:	0e 94 45 02 	call	0x48a	; 0x48a <I2C_Write>
    146a:	80 e0       	ldi	r24, 0x00	; 0
    146c:	0e 94 45 02 	call	0x48a	; 0x48a <I2C_Write>
    1470:	80 e4       	ldi	r24, 0x40	; 64
    1472:	0e 94 45 02 	call	0x48a	; 0x48a <I2C_Write>
    1476:	8d e8       	ldi	r24, 0x8D	; 141
    1478:	0e 94 45 02 	call	0x48a	; 0x48a <I2C_Write>
    147c:	84 e1       	ldi	r24, 0x14	; 20
    147e:	0e 94 45 02 	call	0x48a	; 0x48a <I2C_Write>
    1482:	80 e2       	ldi	r24, 0x20	; 32
    1484:	0e 94 45 02 	call	0x48a	; 0x48a <I2C_Write>
    1488:	80 e0       	ldi	r24, 0x00	; 0
    148a:	0e 94 45 02 	call	0x48a	; 0x48a <I2C_Write>
    148e:	81 ea       	ldi	r24, 0xA1	; 161
    1490:	0e 94 45 02 	call	0x48a	; 0x48a <I2C_Write>
    1494:	88 ec       	ldi	r24, 0xC8	; 200
    1496:	0e 94 45 02 	call	0x48a	; 0x48a <I2C_Write>
    149a:	8a ed       	ldi	r24, 0xDA	; 218
    149c:	0e 94 45 02 	call	0x48a	; 0x48a <I2C_Write>
    14a0:	82 e1       	ldi	r24, 0x12	; 18
    14a2:	0e 94 45 02 	call	0x48a	; 0x48a <I2C_Write>
    14a6:	81 2f       	mov	r24, r17
    14a8:	0e 94 b5 09 	call	0x136a	; 0x136a <SSD1306_Contrast>
    14ac:	89 ed       	ldi	r24, 0xD9	; 217
    14ae:	0e 94 45 02 	call	0x48a	; 0x48a <I2C_Write>
    14b2:	81 ef       	ldi	r24, 0xF1	; 241
    14b4:	0e 94 45 02 	call	0x48a	; 0x48a <I2C_Write>
    14b8:	8b ed       	ldi	r24, 0xDB	; 219
    14ba:	0e 94 45 02 	call	0x48a	; 0x48a <I2C_Write>
    14be:	80 e4       	ldi	r24, 0x40	; 64
    14c0:	0e 94 45 02 	call	0x48a	; 0x48a <I2C_Write>
    14c4:	8d e8       	ldi	r24, 0x8D	; 141
    14c6:	0e 94 45 02 	call	0x48a	; 0x48a <I2C_Write>
    14ca:	84 e1       	ldi	r24, 0x14	; 20
    14cc:	0e 94 45 02 	call	0x48a	; 0x48a <I2C_Write>
    14d0:	84 ea       	ldi	r24, 0xA4	; 164
    14d2:	0e 94 45 02 	call	0x48a	; 0x48a <I2C_Write>
    14d6:	ce 01       	movw	r24, r28
    14d8:	0e 94 a8 09 	call	0x1350	; 0x1350 <SSD1306_Invert>
    14dc:	8f ea       	ldi	r24, 0xAF	; 175
    14de:	0e 94 45 02 	call	0x48a	; 0x48a <I2C_Write>
    14e2:	0e 94 e0 09 	call	0x13c0	; 0x13c0 <SSD1306_Clear>
    14e6:	df 91       	pop	r29
    14e8:	cf 91       	pop	r28
    14ea:	1f 91       	pop	r17
    14ec:	08 95       	ret

000014ee <SSD1306_Display>:
    14ee:	8f 92       	push	r8
    14f0:	9f 92       	push	r9
    14f2:	af 92       	push	r10
    14f4:	bf 92       	push	r11
    14f6:	cf 92       	push	r12
    14f8:	df 92       	push	r13
    14fa:	ef 92       	push	r14
    14fc:	ff 92       	push	r15
    14fe:	0f 93       	push	r16
    1500:	1f 93       	push	r17
    1502:	cf 93       	push	r28
    1504:	df 93       	push	r29
    1506:	5c 01       	movw	r10, r24
    1508:	0e 94 e0 09 	call	0x13c0	; 0x13c0 <SSD1306_Clear>
    150c:	88 e7       	ldi	r24, 0x78	; 120
    150e:	0e 94 fc 01 	call	0x3f8	; 0x3f8 <I2C_Start_NORETURN>
    1512:	60 e0       	ldi	r22, 0x00	; 0
    1514:	80 e0       	ldi	r24, 0x00	; 0
    1516:	0e 94 bf 09 	call	0x137e	; 0x137e <SSD1306_SetCursor>
    151a:	0e 94 25 02 	call	0x44a	; 0x44a <I2C_Stop>
    151e:	c0 e0       	ldi	r28, 0x00	; 0
    1520:	d0 e0       	ldi	r29, 0x00	; 0
    1522:	75 c0       	rjmp	.+234    	; 0x160e <SSD1306_Display+0x120>
    1524:	88 e7       	ldi	r24, 0x78	; 120
    1526:	0e 94 fc 01 	call	0x3f8	; 0x3f8 <I2C_Start_NORETURN>
    152a:	80 e4       	ldi	r24, 0x40	; 64
    152c:	0e 94 45 02 	call	0x48a	; 0x48a <I2C_Write>
    1530:	e1 2c       	mov	r14, r1
    1532:	f1 2c       	mov	r15, r1
    1534:	65 c0       	rjmp	.+202    	; 0x1600 <SSD1306_Display+0x112>
    1536:	c0 38       	cpi	r28, 0x80	; 128
    1538:	d1 05       	cpc	r29, r1
    153a:	30 f4       	brcc	.+12     	; 0x1548 <SSD1306_Display+0x5a>
    153c:	f5 01       	movw	r30, r10
    153e:	ec 0f       	add	r30, r28
    1540:	fd 1f       	adc	r31, r29
    1542:	80 81       	ld	r24, Z
    1544:	0e 94 45 02 	call	0x48a	; 0x48a <I2C_Write>
    1548:	8e 01       	movw	r16, r28
    154a:	00 58       	subi	r16, 0x80	; 128
    154c:	11 09       	sbc	r17, r1
    154e:	00 38       	cpi	r16, 0x80	; 128
    1550:	11 05       	cpc	r17, r1
    1552:	38 f4       	brcc	.+14     	; 0x1562 <SSD1306_Display+0x74>
    1554:	f5 01       	movw	r30, r10
    1556:	e0 0f       	add	r30, r16
    1558:	f1 1f       	adc	r31, r17
    155a:	80 81       	ld	r24, Z
    155c:	86 95       	lsr	r24
    155e:	0e 94 45 02 	call	0x48a	; 0x48a <I2C_Write>
    1562:	4e 01       	movw	r8, r28
    1564:	9a 94       	dec	r9
    1566:	80 e8       	ldi	r24, 0x80	; 128
    1568:	88 16       	cp	r8, r24
    156a:	91 04       	cpc	r9, r1
    156c:	30 f4       	brcc	.+12     	; 0x157a <SSD1306_Display+0x8c>
    156e:	f5 01       	movw	r30, r10
    1570:	e0 0f       	add	r30, r16
    1572:	f1 1f       	adc	r31, r17
    1574:	80 81       	ld	r24, Z
    1576:	0e 94 45 02 	call	0x48a	; 0x48a <I2C_Write>
    157a:	8e 01       	movw	r16, r28
    157c:	00 58       	subi	r16, 0x80	; 128
    157e:	11 40       	sbci	r17, 0x01	; 1
    1580:	00 38       	cpi	r16, 0x80	; 128
    1582:	11 05       	cpc	r17, r1
    1584:	38 f4       	brcc	.+14     	; 0x1594 <SSD1306_Display+0xa6>
    1586:	f5 01       	movw	r30, r10
    1588:	e8 0d       	add	r30, r8
    158a:	f9 1d       	adc	r31, r9
    158c:	80 81       	ld	r24, Z
    158e:	86 95       	lsr	r24
    1590:	0e 94 45 02 	call	0x48a	; 0x48a <I2C_Write>
    1594:	6e 01       	movw	r12, r28
    1596:	82 e0       	ldi	r24, 0x02	; 2
    1598:	d8 1a       	sub	r13, r24
    159a:	80 e8       	ldi	r24, 0x80	; 128
    159c:	c8 16       	cp	r12, r24
    159e:	d1 04       	cpc	r13, r1
    15a0:	30 f4       	brcc	.+12     	; 0x15ae <SSD1306_Display+0xc0>
    15a2:	f5 01       	movw	r30, r10
    15a4:	e8 0d       	add	r30, r8
    15a6:	f9 1d       	adc	r31, r9
    15a8:	80 81       	ld	r24, Z
    15aa:	0e 94 45 02 	call	0x48a	; 0x48a <I2C_Write>
    15ae:	ce 01       	movw	r24, r28
    15b0:	80 58       	subi	r24, 0x80	; 128
    15b2:	92 40       	sbci	r25, 0x02	; 2
    15b4:	80 38       	cpi	r24, 0x80	; 128
    15b6:	91 05       	cpc	r25, r1
    15b8:	38 f4       	brcc	.+14     	; 0x15c8 <SSD1306_Display+0xda>
    15ba:	f5 01       	movw	r30, r10
    15bc:	e0 0f       	add	r30, r16
    15be:	f1 1f       	adc	r31, r17
    15c0:	80 81       	ld	r24, Z
    15c2:	86 95       	lsr	r24
    15c4:	0e 94 45 02 	call	0x48a	; 0x48a <I2C_Write>
    15c8:	ce 01       	movw	r24, r28
    15ca:	93 50       	subi	r25, 0x03	; 3
    15cc:	80 38       	cpi	r24, 0x80	; 128
    15ce:	91 05       	cpc	r25, r1
    15d0:	30 f4       	brcc	.+12     	; 0x15de <SSD1306_Display+0xf0>
    15d2:	f5 01       	movw	r30, r10
    15d4:	e0 0f       	add	r30, r16
    15d6:	f1 1f       	adc	r31, r17
    15d8:	80 81       	ld	r24, Z
    15da:	0e 94 45 02 	call	0x48a	; 0x48a <I2C_Write>
    15de:	ce 01       	movw	r24, r28
    15e0:	80 58       	subi	r24, 0x80	; 128
    15e2:	93 40       	sbci	r25, 0x03	; 3
    15e4:	80 38       	cpi	r24, 0x80	; 128
    15e6:	91 05       	cpc	r25, r1
    15e8:	38 f4       	brcc	.+14     	; 0x15f8 <SSD1306_Display+0x10a>
    15ea:	f5 01       	movw	r30, r10
    15ec:	ec 0d       	add	r30, r12
    15ee:	fd 1d       	adc	r31, r13
    15f0:	80 81       	ld	r24, Z
    15f2:	86 95       	lsr	r24
    15f4:	0e 94 45 02 	call	0x48a	; 0x48a <I2C_Write>
    15f8:	21 96       	adiw	r28, 0x01	; 1
    15fa:	8f ef       	ldi	r24, 0xFF	; 255
    15fc:	e8 1a       	sub	r14, r24
    15fe:	f8 0a       	sbc	r15, r24
    1600:	80 e1       	ldi	r24, 0x10	; 16
    1602:	e8 16       	cp	r14, r24
    1604:	f1 04       	cpc	r15, r1
    1606:	0c f4       	brge	.+2      	; 0x160a <SSD1306_Display+0x11c>
    1608:	96 cf       	rjmp	.-212    	; 0x1536 <SSD1306_Display+0x48>
    160a:	0e 94 25 02 	call	0x44a	; 0x44a <I2C_Stop>
    160e:	c1 15       	cp	r28, r1
    1610:	84 e0       	ldi	r24, 0x04	; 4
    1612:	d8 07       	cpc	r29, r24
    1614:	08 f4       	brcc	.+2      	; 0x1618 <SSD1306_Display+0x12a>
    1616:	86 cf       	rjmp	.-244    	; 0x1524 <SSD1306_Display+0x36>
    1618:	df 91       	pop	r29
    161a:	cf 91       	pop	r28
    161c:	1f 91       	pop	r17
    161e:	0f 91       	pop	r16
    1620:	ff 90       	pop	r15
    1622:	ef 90       	pop	r14
    1624:	df 90       	pop	r13
    1626:	cf 90       	pop	r12
    1628:	bf 90       	pop	r11
    162a:	af 90       	pop	r10
    162c:	9f 90       	pop	r9
    162e:	8f 90       	pop	r8
    1630:	08 95       	ret

00001632 <SSD1306_Clear_Screen_Sector>:
    1632:	80 e0       	ldi	r24, 0x00	; 0
    1634:	92 e0       	ldi	r25, 0x02	; 2
    1636:	e2 ef       	ldi	r30, 0xF2	; 242
    1638:	f0 e0       	ldi	r31, 0x00	; 0
    163a:	df 01       	movw	r26, r30
    163c:	9c 01       	movw	r18, r24
    163e:	1d 92       	st	X+, r1
    1640:	21 50       	subi	r18, 0x01	; 1
    1642:	30 40       	sbci	r19, 0x00	; 0
    1644:	e1 f7       	brne	.-8      	; 0x163e <SSD1306_Clear_Screen_Sector+0xc>
    1646:	21 e0       	ldi	r18, 0x01	; 1
    1648:	40 e0       	ldi	r20, 0x00	; 0
    164a:	50 e0       	ldi	r21, 0x00	; 0
    164c:	ba 01       	movw	r22, r20
    164e:	85 e6       	ldi	r24, 0x65	; 101
    1650:	90 e0       	ldi	r25, 0x00	; 0
    1652:	0e 94 50 08 	call	0x10a0	; 0x10a0 <FAT32_FILE_Write_Sector_In_Cluster>
    1656:	21 e0       	ldi	r18, 0x01	; 1
    1658:	40 e0       	ldi	r20, 0x00	; 0
    165a:	50 e0       	ldi	r21, 0x00	; 0
    165c:	ba 01       	movw	r22, r20
    165e:	85 e6       	ldi	r24, 0x65	; 101
    1660:	90 e0       	ldi	r25, 0x00	; 0
    1662:	0e 94 2d 07 	call	0xe5a	; 0xe5a <FAT32_FILE_Read_Sector_In_Cluster>
    1666:	82 ef       	ldi	r24, 0xF2	; 242
    1668:	90 e0       	ldi	r25, 0x00	; 0
    166a:	0e 94 77 0a 	call	0x14ee	; 0x14ee <SSD1306_Display>
    166e:	08 95       	ret

00001670 <SSD1306_XY_pixel>:
    1670:	60 32       	cpi	r22, 0x20	; 32
    1672:	08 f0       	brcs	.+2      	; 0x1676 <SSD1306_XY_pixel+0x6>
    1674:	69 c0       	rjmp	.+210    	; 0x1748 <SSD1306_XY_pixel+0xd8>
    1676:	88 23       	and	r24, r24
    1678:	0c f4       	brge	.+2      	; 0x167c <SSD1306_XY_pixel+0xc>
    167a:	66 c0       	rjmp	.+204    	; 0x1748 <SSD1306_XY_pixel+0xd8>
    167c:	9c ef       	ldi	r25, 0xFC	; 252
    167e:	96 0f       	add	r25, r22
    1680:	94 30       	cpi	r25, 0x04	; 4
    1682:	70 f0       	brcs	.+28     	; 0x16a0 <SSD1306_XY_pixel+0x30>
    1684:	94 ef       	ldi	r25, 0xF4	; 244
    1686:	96 0f       	add	r25, r22
    1688:	94 30       	cpi	r25, 0x04	; 4
    168a:	60 f0       	brcs	.+24     	; 0x16a4 <SSD1306_XY_pixel+0x34>
    168c:	9c ee       	ldi	r25, 0xEC	; 236
    168e:	96 0f       	add	r25, r22
    1690:	94 30       	cpi	r25, 0x04	; 4
    1692:	50 f0       	brcs	.+20     	; 0x16a8 <SSD1306_XY_pixel+0x38>
    1694:	94 ee       	ldi	r25, 0xE4	; 228
    1696:	96 0f       	add	r25, r22
    1698:	94 30       	cpi	r25, 0x04	; 4
    169a:	40 f0       	brcs	.+16     	; 0x16ac <SSD1306_XY_pixel+0x3c>
    169c:	90 e0       	ldi	r25, 0x00	; 0
    169e:	07 c0       	rjmp	.+14     	; 0x16ae <SSD1306_XY_pixel+0x3e>
    16a0:	91 e0       	ldi	r25, 0x01	; 1
    16a2:	05 c0       	rjmp	.+10     	; 0x16ae <SSD1306_XY_pixel+0x3e>
    16a4:	91 e0       	ldi	r25, 0x01	; 1
    16a6:	03 c0       	rjmp	.+6      	; 0x16ae <SSD1306_XY_pixel+0x3e>
    16a8:	91 e0       	ldi	r25, 0x01	; 1
    16aa:	01 c0       	rjmp	.+2      	; 0x16ae <SSD1306_XY_pixel+0x3e>
    16ac:	91 e0       	ldi	r25, 0x01	; 1
    16ae:	36 2f       	mov	r19, r22
    16b0:	36 95       	lsr	r19
    16b2:	36 95       	lsr	r19
    16b4:	36 95       	lsr	r19
    16b6:	63 70       	andi	r22, 0x03	; 3
    16b8:	66 0f       	add	r22, r22
    16ba:	69 0f       	add	r22, r25
    16bc:	90 e0       	ldi	r25, 0x00	; 0
    16be:	70 e8       	ldi	r23, 0x80	; 128
    16c0:	37 9f       	mul	r19, r23
    16c2:	80 0d       	add	r24, r0
    16c4:	91 1d       	adc	r25, r1
    16c6:	11 24       	eor	r1, r1
    16c8:	3f ef       	ldi	r19, 0xFF	; 255
    16ca:	32 0f       	add	r19, r18
    16cc:	32 30       	cpi	r19, 0x02	; 2
    16ce:	60 f0       	brcs	.+24     	; 0x16e8 <SSD1306_XY_pixel+0x78>
    16d0:	24 30       	cpi	r18, 0x04	; 4
    16d2:	51 f0       	breq	.+20     	; 0x16e8 <SSD1306_XY_pixel+0x78>
    16d4:	28 30       	cpi	r18, 0x08	; 8
    16d6:	41 f0       	breq	.+16     	; 0x16e8 <SSD1306_XY_pixel+0x78>
    16d8:	20 31       	cpi	r18, 0x10	; 16
    16da:	31 f0       	breq	.+12     	; 0x16e8 <SSD1306_XY_pixel+0x78>
    16dc:	20 32       	cpi	r18, 0x20	; 32
    16de:	21 f0       	breq	.+8      	; 0x16e8 <SSD1306_XY_pixel+0x78>
    16e0:	20 34       	cpi	r18, 0x40	; 64
    16e2:	11 f0       	breq	.+4      	; 0x16e8 <SSD1306_XY_pixel+0x78>
    16e4:	20 38       	cpi	r18, 0x80	; 128
    16e6:	b9 f4       	brne	.+46     	; 0x1716 <SSD1306_XY_pixel+0xa6>
    16e8:	61 11       	cpse	r22, r1
    16ea:	07 c0       	rjmp	.+14     	; 0x16fa <SSD1306_XY_pixel+0x8a>
    16ec:	fa 01       	movw	r30, r20
    16ee:	e8 0f       	add	r30, r24
    16f0:	f9 1f       	adc	r31, r25
    16f2:	20 81       	ld	r18, Z
    16f4:	21 60       	ori	r18, 0x01	; 1
    16f6:	20 83       	st	Z, r18
    16f8:	08 95       	ret
    16fa:	fa 01       	movw	r30, r20
    16fc:	e8 0f       	add	r30, r24
    16fe:	f9 1f       	adc	r31, r25
    1700:	21 e0       	ldi	r18, 0x01	; 1
    1702:	30 e0       	ldi	r19, 0x00	; 0
    1704:	02 c0       	rjmp	.+4      	; 0x170a <SSD1306_XY_pixel+0x9a>
    1706:	22 0f       	add	r18, r18
    1708:	33 1f       	adc	r19, r19
    170a:	6a 95       	dec	r22
    170c:	e2 f7       	brpl	.-8      	; 0x1706 <SSD1306_XY_pixel+0x96>
    170e:	30 81       	ld	r19, Z
    1710:	23 2b       	or	r18, r19
    1712:	20 83       	st	Z, r18
    1714:	08 95       	ret
    1716:	21 11       	cpse	r18, r1
    1718:	17 c0       	rjmp	.+46     	; 0x1748 <SSD1306_XY_pixel+0xd8>
    171a:	61 11       	cpse	r22, r1
    171c:	07 c0       	rjmp	.+14     	; 0x172c <SSD1306_XY_pixel+0xbc>
    171e:	fa 01       	movw	r30, r20
    1720:	e8 0f       	add	r30, r24
    1722:	f9 1f       	adc	r31, r25
    1724:	20 81       	ld	r18, Z
    1726:	2e 7f       	andi	r18, 0xFE	; 254
    1728:	20 83       	st	Z, r18
    172a:	08 95       	ret
    172c:	fa 01       	movw	r30, r20
    172e:	e8 0f       	add	r30, r24
    1730:	f9 1f       	adc	r31, r25
    1732:	21 e0       	ldi	r18, 0x01	; 1
    1734:	30 e0       	ldi	r19, 0x00	; 0
    1736:	02 c0       	rjmp	.+4      	; 0x173c <SSD1306_XY_pixel+0xcc>
    1738:	22 0f       	add	r18, r18
    173a:	33 1f       	adc	r19, r19
    173c:	6a 95       	dec	r22
    173e:	e2 f7       	brpl	.-8      	; 0x1738 <SSD1306_XY_pixel+0xc8>
    1740:	20 95       	com	r18
    1742:	30 81       	ld	r19, Z
    1744:	23 23       	and	r18, r19
    1746:	20 83       	st	Z, r18
    1748:	08 95       	ret

0000174a <SSD1306_Byte>:
    174a:	ef 92       	push	r14
    174c:	ff 92       	push	r15
    174e:	1f 93       	push	r17
    1750:	cf 93       	push	r28
    1752:	df 93       	push	r29
    1754:	18 2f       	mov	r17, r24
    1756:	c6 2f       	mov	r28, r22
    1758:	7a 01       	movw	r14, r20
    175a:	d2 2f       	mov	r29, r18
    175c:	21 70       	andi	r18, 0x01	; 1
    175e:	0e 94 38 0b 	call	0x1670	; 0x1670 <SSD1306_XY_pixel>
    1762:	2d 2f       	mov	r18, r29
    1764:	22 70       	andi	r18, 0x02	; 2
    1766:	61 e0       	ldi	r22, 0x01	; 1
    1768:	6c 0f       	add	r22, r28
    176a:	a7 01       	movw	r20, r14
    176c:	81 2f       	mov	r24, r17
    176e:	0e 94 38 0b 	call	0x1670	; 0x1670 <SSD1306_XY_pixel>
    1772:	2d 2f       	mov	r18, r29
    1774:	24 70       	andi	r18, 0x04	; 4
    1776:	62 e0       	ldi	r22, 0x02	; 2
    1778:	6c 0f       	add	r22, r28
    177a:	a7 01       	movw	r20, r14
    177c:	81 2f       	mov	r24, r17
    177e:	0e 94 38 0b 	call	0x1670	; 0x1670 <SSD1306_XY_pixel>
    1782:	2d 2f       	mov	r18, r29
    1784:	28 70       	andi	r18, 0x08	; 8
    1786:	63 e0       	ldi	r22, 0x03	; 3
    1788:	6c 0f       	add	r22, r28
    178a:	a7 01       	movw	r20, r14
    178c:	81 2f       	mov	r24, r17
    178e:	0e 94 38 0b 	call	0x1670	; 0x1670 <SSD1306_XY_pixel>
    1792:	2d 2f       	mov	r18, r29
    1794:	20 71       	andi	r18, 0x10	; 16
    1796:	64 e0       	ldi	r22, 0x04	; 4
    1798:	6c 0f       	add	r22, r28
    179a:	a7 01       	movw	r20, r14
    179c:	81 2f       	mov	r24, r17
    179e:	0e 94 38 0b 	call	0x1670	; 0x1670 <SSD1306_XY_pixel>
    17a2:	2d 2f       	mov	r18, r29
    17a4:	20 72       	andi	r18, 0x20	; 32
    17a6:	65 e0       	ldi	r22, 0x05	; 5
    17a8:	6c 0f       	add	r22, r28
    17aa:	a7 01       	movw	r20, r14
    17ac:	81 2f       	mov	r24, r17
    17ae:	0e 94 38 0b 	call	0x1670	; 0x1670 <SSD1306_XY_pixel>
    17b2:	2d 2f       	mov	r18, r29
    17b4:	20 74       	andi	r18, 0x40	; 64
    17b6:	66 e0       	ldi	r22, 0x06	; 6
    17b8:	6c 0f       	add	r22, r28
    17ba:	a7 01       	movw	r20, r14
    17bc:	81 2f       	mov	r24, r17
    17be:	0e 94 38 0b 	call	0x1670	; 0x1670 <SSD1306_XY_pixel>
    17c2:	2d 2f       	mov	r18, r29
    17c4:	20 78       	andi	r18, 0x80	; 128
    17c6:	67 e0       	ldi	r22, 0x07	; 7
    17c8:	6c 0f       	add	r22, r28
    17ca:	a7 01       	movw	r20, r14
    17cc:	81 2f       	mov	r24, r17
    17ce:	0e 94 38 0b 	call	0x1670	; 0x1670 <SSD1306_XY_pixel>
    17d2:	df 91       	pop	r29
    17d4:	cf 91       	pop	r28
    17d6:	1f 91       	pop	r17
    17d8:	ff 90       	pop	r15
    17da:	ef 90       	pop	r14
    17dc:	08 95       	ret

000017de <SSD1306_Display_Char>:
    17de:	9f 92       	push	r9
    17e0:	af 92       	push	r10
    17e2:	bf 92       	push	r11
    17e4:	cf 92       	push	r12
    17e6:	df 92       	push	r13
    17e8:	ef 92       	push	r14
    17ea:	ff 92       	push	r15
    17ec:	0f 93       	push	r16
    17ee:	1f 93       	push	r17
    17f0:	cf 93       	push	r28
    17f2:	df 93       	push	r29
    17f4:	94 2e       	mov	r9, r20
    17f6:	8c 01       	movw	r16, r24
    17f8:	00 0f       	add	r16, r16
    17fa:	11 1f       	adc	r17, r17
    17fc:	00 0f       	add	r16, r16
    17fe:	11 1f       	adc	r17, r17
    1800:	08 0f       	add	r16, r24
    1802:	19 1f       	adc	r17, r25
    1804:	e8 01       	movw	r28, r16
    1806:	c0 5a       	subi	r28, 0xA0	; 160
    1808:	d1 09       	sbc	r29, r1
    180a:	d6 2e       	mov	r13, r22
    180c:	dd 0c       	add	r13, r13
    180e:	dd 0c       	add	r13, r13
    1810:	d6 0e       	add	r13, r22
    1812:	20 e0       	ldi	r18, 0x00	; 0
    1814:	40 e0       	ldi	r20, 0x00	; 0
    1816:	50 e0       	ldi	r21, 0x00	; 0
    1818:	ba 01       	movw	r22, r20
    181a:	85 e6       	ldi	r24, 0x65	; 101
    181c:	90 e0       	ldi	r25, 0x00	; 0
    181e:	0e 94 2d 07 	call	0xe5a	; 0xe5a <FAT32_FILE_Read_Sector_In_Cluster>
    1822:	ce 50       	subi	r28, 0x0E	; 14
    1824:	df 4f       	sbci	r29, 0xFF	; 255
    1826:	e8 80       	ld	r14, Y
    1828:	f8 01       	movw	r30, r16
    182a:	ed 5a       	subi	r30, 0xAD	; 173
    182c:	ff 4f       	sbci	r31, 0xFF	; 255
    182e:	f0 80       	ld	r15, Z
    1830:	f8 01       	movw	r30, r16
    1832:	ec 5a       	subi	r30, 0xAC	; 172
    1834:	ff 4f       	sbci	r31, 0xFF	; 255
    1836:	a0 80       	ld	r10, Z
    1838:	f8 01       	movw	r30, r16
    183a:	eb 5a       	subi	r30, 0xAB	; 171
    183c:	ff 4f       	sbci	r31, 0xFF	; 255
    183e:	c0 80       	ld	r12, Z
    1840:	f8 01       	movw	r30, r16
    1842:	ea 5a       	subi	r30, 0xAA	; 170
    1844:	ff 4f       	sbci	r31, 0xFF	; 255
    1846:	b0 80       	ld	r11, Z
    1848:	21 e0       	ldi	r18, 0x01	; 1
    184a:	40 e0       	ldi	r20, 0x00	; 0
    184c:	50 e0       	ldi	r21, 0x00	; 0
    184e:	ba 01       	movw	r22, r20
    1850:	85 e6       	ldi	r24, 0x65	; 101
    1852:	90 e0       	ldi	r25, 0x00	; 0
    1854:	0e 94 2d 07 	call	0xe5a	; 0xe5a <FAT32_FILE_Read_Sector_In_Cluster>
    1858:	09 2d       	mov	r16, r9
    185a:	10 e0       	ldi	r17, 0x00	; 0
    185c:	cd 2d       	mov	r28, r13
    185e:	d0 e0       	ldi	r29, 0x00	; 0
    1860:	2e 2d       	mov	r18, r14
    1862:	30 e0       	ldi	r19, 0x00	; 0
    1864:	42 ef       	ldi	r20, 0xF2	; 242
    1866:	50 e0       	ldi	r21, 0x00	; 0
    1868:	b8 01       	movw	r22, r16
    186a:	ce 01       	movw	r24, r28
    186c:	0e 94 a5 0b 	call	0x174a	; 0x174a <SSD1306_Byte>
    1870:	2f 2d       	mov	r18, r15
    1872:	30 e0       	ldi	r19, 0x00	; 0
    1874:	42 ef       	ldi	r20, 0xF2	; 242
    1876:	50 e0       	ldi	r21, 0x00	; 0
    1878:	b8 01       	movw	r22, r16
    187a:	ce 01       	movw	r24, r28
    187c:	01 96       	adiw	r24, 0x01	; 1
    187e:	0e 94 a5 0b 	call	0x174a	; 0x174a <SSD1306_Byte>
    1882:	2a 2d       	mov	r18, r10
    1884:	30 e0       	ldi	r19, 0x00	; 0
    1886:	42 ef       	ldi	r20, 0xF2	; 242
    1888:	50 e0       	ldi	r21, 0x00	; 0
    188a:	b8 01       	movw	r22, r16
    188c:	ce 01       	movw	r24, r28
    188e:	02 96       	adiw	r24, 0x02	; 2
    1890:	0e 94 a5 0b 	call	0x174a	; 0x174a <SSD1306_Byte>
    1894:	2c 2d       	mov	r18, r12
    1896:	30 e0       	ldi	r19, 0x00	; 0
    1898:	42 ef       	ldi	r20, 0xF2	; 242
    189a:	50 e0       	ldi	r21, 0x00	; 0
    189c:	b8 01       	movw	r22, r16
    189e:	ce 01       	movw	r24, r28
    18a0:	03 96       	adiw	r24, 0x03	; 3
    18a2:	0e 94 a5 0b 	call	0x174a	; 0x174a <SSD1306_Byte>
    18a6:	2b 2d       	mov	r18, r11
    18a8:	30 e0       	ldi	r19, 0x00	; 0
    18aa:	42 ef       	ldi	r20, 0xF2	; 242
    18ac:	50 e0       	ldi	r21, 0x00	; 0
    18ae:	b8 01       	movw	r22, r16
    18b0:	ce 01       	movw	r24, r28
    18b2:	04 96       	adiw	r24, 0x04	; 4
    18b4:	0e 94 a5 0b 	call	0x174a	; 0x174a <SSD1306_Byte>
    18b8:	21 e0       	ldi	r18, 0x01	; 1
    18ba:	40 e0       	ldi	r20, 0x00	; 0
    18bc:	50 e0       	ldi	r21, 0x00	; 0
    18be:	ba 01       	movw	r22, r20
    18c0:	85 e6       	ldi	r24, 0x65	; 101
    18c2:	90 e0       	ldi	r25, 0x00	; 0
    18c4:	0e 94 50 08 	call	0x10a0	; 0x10a0 <FAT32_FILE_Write_Sector_In_Cluster>
    18c8:	df 91       	pop	r29
    18ca:	cf 91       	pop	r28
    18cc:	1f 91       	pop	r17
    18ce:	0f 91       	pop	r16
    18d0:	ff 90       	pop	r15
    18d2:	ef 90       	pop	r14
    18d4:	df 90       	pop	r13
    18d6:	cf 90       	pop	r12
    18d8:	bf 90       	pop	r11
    18da:	af 90       	pop	r10
    18dc:	9f 90       	pop	r9
    18de:	08 95       	ret

000018e0 <SSD1306_Display_String>:
    18e0:	ff 92       	push	r15
    18e2:	0f 93       	push	r16
    18e4:	1f 93       	push	r17
    18e6:	cf 93       	push	r28
    18e8:	df 93       	push	r29
    18ea:	8c 01       	movw	r16, r24
    18ec:	f6 2e       	mov	r15, r22
    18ee:	d4 2f       	mov	r29, r20
    18f0:	c0 e0       	ldi	r28, 0x00	; 0
    18f2:	0b c0       	rjmp	.+22     	; 0x190a <SSD1306_Display_String+0x2a>
    18f4:	f8 01       	movw	r30, r16
    18f6:	e8 0f       	add	r30, r24
    18f8:	f9 1f       	adc	r31, r25
    18fa:	80 81       	ld	r24, Z
    18fc:	6c 2f       	mov	r22, r28
    18fe:	6f 0d       	add	r22, r15
    1900:	4d 2f       	mov	r20, r29
    1902:	90 e0       	ldi	r25, 0x00	; 0
    1904:	0e 94 ef 0b 	call	0x17de	; 0x17de <SSD1306_Display_Char>
    1908:	cf 5f       	subi	r28, 0xFF	; 255
    190a:	8c 2f       	mov	r24, r28
    190c:	90 e0       	ldi	r25, 0x00	; 0
    190e:	f8 01       	movw	r30, r16
    1910:	01 90       	ld	r0, Z+
    1912:	00 20       	and	r0, r0
    1914:	e9 f7       	brne	.-6      	; 0x1910 <SSD1306_Display_String+0x30>
    1916:	31 97       	sbiw	r30, 0x01	; 1
    1918:	e0 1b       	sub	r30, r16
    191a:	f1 0b       	sbc	r31, r17
    191c:	8e 17       	cp	r24, r30
    191e:	9f 07       	cpc	r25, r31
    1920:	48 f3       	brcs	.-46     	; 0x18f4 <SSD1306_Display_String+0x14>
    1922:	82 ef       	ldi	r24, 0xF2	; 242
    1924:	90 e0       	ldi	r25, 0x00	; 0
    1926:	0e 94 77 0a 	call	0x14ee	; 0x14ee <SSD1306_Display>
    192a:	df 91       	pop	r29
    192c:	cf 91       	pop	r28
    192e:	1f 91       	pop	r17
    1930:	0f 91       	pop	r16
    1932:	ff 90       	pop	r15
    1934:	08 95       	ret

00001936 <SSD1306_ltoa>:
    1936:	bf 92       	push	r11
    1938:	cf 92       	push	r12
    193a:	df 92       	push	r13
    193c:	ef 92       	push	r14
    193e:	ff 92       	push	r15
    1940:	0f 93       	push	r16
    1942:	1f 93       	push	r17
    1944:	cf 93       	push	r28
    1946:	df 93       	push	r29
    1948:	cd b7       	in	r28, 0x3d	; 61
    194a:	de b7       	in	r29, 0x3e	; 62
    194c:	2a 97       	sbiw	r28, 0x0a	; 10
    194e:	0f b6       	in	r0, 0x3f	; 63
    1950:	f8 94       	cli
    1952:	de bf       	out	0x3e, r29	; 62
    1954:	0f be       	out	0x3f, r0	; 63
    1956:	cd bf       	out	0x3d, r28	; 61
    1958:	6b 01       	movw	r12, r22
    195a:	7c 01       	movw	r14, r24
    195c:	14 2f       	mov	r17, r20
    195e:	b2 2e       	mov	r11, r18
    1960:	20 2f       	mov	r18, r16
    1962:	30 e0       	ldi	r19, 0x00	; 0
    1964:	ae 01       	movw	r20, r28
    1966:	4f 5f       	subi	r20, 0xFF	; 255
    1968:	5f 4f       	sbci	r21, 0xFF	; 255
    196a:	0e 94 80 0e 	call	0x1d00	; 0x1d00 <ltoa>
    196e:	0a 30       	cpi	r16, 0x0A	; 10
    1970:	91 f0       	breq	.+36     	; 0x1996 <SSD1306_ltoa+0x60>
    1972:	00 31       	cpi	r16, 0x10	; 16
    1974:	f1 f0       	breq	.+60     	; 0x19b2 <SSD1306_ltoa+0x7c>
    1976:	02 30       	cpi	r16, 0x02	; 2
    1978:	51 f5       	brne	.+84     	; 0x19ce <SSD1306_ltoa+0x98>
    197a:	82 e0       	ldi	r24, 0x02	; 2
    197c:	c8 16       	cp	r12, r24
    197e:	d1 04       	cpc	r13, r1
    1980:	e1 04       	cpc	r14, r1
    1982:	f1 04       	cpc	r15, r1
    1984:	30 f5       	brcc	.+76     	; 0x19d2 <SSD1306_ltoa+0x9c>
    1986:	4b 2d       	mov	r20, r11
    1988:	61 2f       	mov	r22, r17
    198a:	83 e6       	ldi	r24, 0x63	; 99
    198c:	90 e0       	ldi	r25, 0x00	; 0
    198e:	0e 94 70 0c 	call	0x18e0	; 0x18e0 <SSD1306_Display_String>
    1992:	81 e0       	ldi	r24, 0x01	; 1
    1994:	23 c0       	rjmp	.+70     	; 0x19dc <SSD1306_ltoa+0xa6>
    1996:	8a e0       	ldi	r24, 0x0A	; 10
    1998:	c8 16       	cp	r12, r24
    199a:	d1 04       	cpc	r13, r1
    199c:	e1 04       	cpc	r14, r1
    199e:	f1 04       	cpc	r15, r1
    19a0:	d0 f4       	brcc	.+52     	; 0x19d6 <SSD1306_ltoa+0xa0>
    19a2:	4b 2d       	mov	r20, r11
    19a4:	61 2f       	mov	r22, r17
    19a6:	83 e6       	ldi	r24, 0x63	; 99
    19a8:	90 e0       	ldi	r25, 0x00	; 0
    19aa:	0e 94 70 0c 	call	0x18e0	; 0x18e0 <SSD1306_Display_String>
    19ae:	81 e0       	ldi	r24, 0x01	; 1
    19b0:	15 c0       	rjmp	.+42     	; 0x19dc <SSD1306_ltoa+0xa6>
    19b2:	80 e1       	ldi	r24, 0x10	; 16
    19b4:	c8 16       	cp	r12, r24
    19b6:	d1 04       	cpc	r13, r1
    19b8:	e1 04       	cpc	r14, r1
    19ba:	f1 04       	cpc	r15, r1
    19bc:	70 f4       	brcc	.+28     	; 0x19da <SSD1306_ltoa+0xa4>
    19be:	4b 2d       	mov	r20, r11
    19c0:	61 2f       	mov	r22, r17
    19c2:	83 e6       	ldi	r24, 0x63	; 99
    19c4:	90 e0       	ldi	r25, 0x00	; 0
    19c6:	0e 94 70 0c 	call	0x18e0	; 0x18e0 <SSD1306_Display_String>
    19ca:	81 e0       	ldi	r24, 0x01	; 1
    19cc:	07 c0       	rjmp	.+14     	; 0x19dc <SSD1306_ltoa+0xa6>
    19ce:	80 e0       	ldi	r24, 0x00	; 0
    19d0:	05 c0       	rjmp	.+10     	; 0x19dc <SSD1306_ltoa+0xa6>
    19d2:	80 e0       	ldi	r24, 0x00	; 0
    19d4:	03 c0       	rjmp	.+6      	; 0x19dc <SSD1306_ltoa+0xa6>
    19d6:	80 e0       	ldi	r24, 0x00	; 0
    19d8:	01 c0       	rjmp	.+2      	; 0x19dc <SSD1306_ltoa+0xa6>
    19da:	80 e0       	ldi	r24, 0x00	; 0
    19dc:	81 30       	cpi	r24, 0x01	; 1
    19de:	41 f4       	brne	.+16     	; 0x19f0 <SSD1306_ltoa+0xba>
    19e0:	61 e0       	ldi	r22, 0x01	; 1
    19e2:	61 0f       	add	r22, r17
    19e4:	4b 2d       	mov	r20, r11
    19e6:	ce 01       	movw	r24, r28
    19e8:	01 96       	adiw	r24, 0x01	; 1
    19ea:	0e 94 70 0c 	call	0x18e0	; 0x18e0 <SSD1306_Display_String>
    19ee:	06 c0       	rjmp	.+12     	; 0x19fc <SSD1306_ltoa+0xc6>
    19f0:	4b 2d       	mov	r20, r11
    19f2:	61 2f       	mov	r22, r17
    19f4:	ce 01       	movw	r24, r28
    19f6:	01 96       	adiw	r24, 0x01	; 1
    19f8:	0e 94 70 0c 	call	0x18e0	; 0x18e0 <SSD1306_Display_String>
    19fc:	2a 96       	adiw	r28, 0x0a	; 10
    19fe:	0f b6       	in	r0, 0x3f	; 63
    1a00:	f8 94       	cli
    1a02:	de bf       	out	0x3e, r29	; 62
    1a04:	0f be       	out	0x3f, r0	; 63
    1a06:	cd bf       	out	0x3d, r28	; 61
    1a08:	df 91       	pop	r29
    1a0a:	cf 91       	pop	r28
    1a0c:	1f 91       	pop	r17
    1a0e:	0f 91       	pop	r16
    1a10:	ff 90       	pop	r15
    1a12:	ef 90       	pop	r14
    1a14:	df 90       	pop	r13
    1a16:	cf 90       	pop	r12
    1a18:	bf 90       	pop	r11
    1a1a:	08 95       	ret

00001a1c <SSD1306_Display_Time>:
    1a1c:	df 92       	push	r13
    1a1e:	ef 92       	push	r14
    1a20:	ff 92       	push	r15
    1a22:	0f 93       	push	r16
    1a24:	1f 93       	push	r17
    1a26:	cf 93       	push	r28
    1a28:	df 93       	push	r29
    1a2a:	cd b7       	in	r28, 0x3d	; 61
    1a2c:	de b7       	in	r29, 0x3e	; 62
    1a2e:	27 97       	sbiw	r28, 0x07	; 7
    1a30:	0f b6       	in	r0, 0x3f	; 63
    1a32:	f8 94       	cli
    1a34:	de bf       	out	0x3e, r29	; 62
    1a36:	0f be       	out	0x3f, r0	; 63
    1a38:	cd bf       	out	0x3d, r28	; 61
    1a3a:	f8 2e       	mov	r15, r24
    1a3c:	16 2f       	mov	r17, r22
    1a3e:	ce 01       	movw	r24, r28
    1a40:	01 96       	adiw	r24, 0x01	; 1
    1a42:	0e 94 65 02 	call	0x4ca	; 0x4ca <RTC_Clock_Read>
    1a46:	ce 01       	movw	r24, r28
    1a48:	01 96       	adiw	r24, 0x01	; 1
    1a4a:	0e 94 d1 02 	call	0x5a2	; 0x5a2 <RTC_Calendar_Read>
    1a4e:	6b 81       	ldd	r22, Y+3	; 0x03
    1a50:	70 e0       	ldi	r23, 0x00	; 0
    1a52:	80 e0       	ldi	r24, 0x00	; 0
    1a54:	90 e0       	ldi	r25, 0x00	; 0
    1a56:	0a e0       	ldi	r16, 0x0A	; 10
    1a58:	21 2f       	mov	r18, r17
    1a5a:	4f 2d       	mov	r20, r15
    1a5c:	0e 94 9b 0c 	call	0x1936	; 0x1936 <SSD1306_ltoa>
    1a60:	68 94       	set
    1a62:	dd 24       	eor	r13, r13
    1a64:	d1 f8       	bld	r13, 1
    1a66:	df 0c       	add	r13, r15
    1a68:	41 2f       	mov	r20, r17
    1a6a:	6d 2d       	mov	r22, r13
    1a6c:	8d e6       	ldi	r24, 0x6D	; 109
    1a6e:	90 e0       	ldi	r25, 0x00	; 0
    1a70:	0e 94 70 0c 	call	0x18e0	; 0x18e0 <SSD1306_Display_String>
    1a74:	0f 2e       	mov	r0, r31
    1a76:	f3 e0       	ldi	r31, 0x03	; 3
    1a78:	ef 2e       	mov	r14, r31
    1a7a:	f0 2d       	mov	r31, r0
    1a7c:	ef 0c       	add	r14, r15
    1a7e:	6a 81       	ldd	r22, Y+2	; 0x02
    1a80:	70 e0       	ldi	r23, 0x00	; 0
    1a82:	80 e0       	ldi	r24, 0x00	; 0
    1a84:	90 e0       	ldi	r25, 0x00	; 0
    1a86:	21 2f       	mov	r18, r17
    1a88:	4e 2d       	mov	r20, r14
    1a8a:	0e 94 9b 0c 	call	0x1936	; 0x1936 <SSD1306_ltoa>
    1a8e:	18 5f       	subi	r17, 0xF8	; 248
    1a90:	6f 81       	ldd	r22, Y+7	; 0x07
    1a92:	70 e0       	ldi	r23, 0x00	; 0
    1a94:	80 e0       	ldi	r24, 0x00	; 0
    1a96:	90 e0       	ldi	r25, 0x00	; 0
    1a98:	21 2f       	mov	r18, r17
    1a9a:	4f 2d       	mov	r20, r15
    1a9c:	0e 94 9b 0c 	call	0x1936	; 0x1936 <SSD1306_ltoa>
    1aa0:	41 2f       	mov	r20, r17
    1aa2:	6d 2d       	mov	r22, r13
    1aa4:	8f e6       	ldi	r24, 0x6F	; 111
    1aa6:	90 e0       	ldi	r25, 0x00	; 0
    1aa8:	0e 94 70 0c 	call	0x18e0	; 0x18e0 <SSD1306_Display_String>
    1aac:	6e 81       	ldd	r22, Y+6	; 0x06
    1aae:	70 e0       	ldi	r23, 0x00	; 0
    1ab0:	80 e0       	ldi	r24, 0x00	; 0
    1ab2:	90 e0       	ldi	r25, 0x00	; 0
    1ab4:	21 2f       	mov	r18, r17
    1ab6:	4e 2d       	mov	r20, r14
    1ab8:	0e 94 9b 0c 	call	0x1936	; 0x1936 <SSD1306_ltoa>
    1abc:	65 e0       	ldi	r22, 0x05	; 5
    1abe:	6f 0d       	add	r22, r15
    1ac0:	41 2f       	mov	r20, r17
    1ac2:	8f e6       	ldi	r24, 0x6F	; 111
    1ac4:	90 e0       	ldi	r25, 0x00	; 0
    1ac6:	0e 94 70 0c 	call	0x18e0	; 0x18e0 <SSD1306_Display_String>
    1aca:	68 85       	ldd	r22, Y+8	; 0x08
    1acc:	46 e0       	ldi	r20, 0x06	; 6
    1ace:	4f 0d       	add	r20, r15
    1ad0:	70 e0       	ldi	r23, 0x00	; 0
    1ad2:	80 e0       	ldi	r24, 0x00	; 0
    1ad4:	90 e0       	ldi	r25, 0x00	; 0
    1ad6:	21 2f       	mov	r18, r17
    1ad8:	0e 94 9b 0c 	call	0x1936	; 0x1936 <SSD1306_ltoa>
    1adc:	27 96       	adiw	r28, 0x07	; 7
    1ade:	0f b6       	in	r0, 0x3f	; 63
    1ae0:	f8 94       	cli
    1ae2:	de bf       	out	0x3e, r29	; 62
    1ae4:	0f be       	out	0x3f, r0	; 63
    1ae6:	cd bf       	out	0x3d, r28	; 61
    1ae8:	df 91       	pop	r29
    1aea:	cf 91       	pop	r28
    1aec:	1f 91       	pop	r17
    1aee:	0f 91       	pop	r16
    1af0:	ff 90       	pop	r15
    1af2:	ef 90       	pop	r14
    1af4:	df 90       	pop	r13
    1af6:	08 95       	ret

00001af8 <main>:




int main(void)
{
    1af8:	0f 93       	push	r16
    1afa:	1f 93       	push	r17
    1afc:	cf 93       	push	r28
    1afe:	df 93       	push	r29
    1b00:	cd b7       	in	r28, 0x3d	; 61
    1b02:	de b7       	in	r29, 0x3e	; 62
    1b04:	27 97       	sbiw	r28, 0x07	; 7
    1b06:	0f b6       	in	r0, 0x3f	; 63
    1b08:	f8 94       	cli
    1b0a:	de bf       	out	0x3e, r29	; 62
    1b0c:	0f be       	out	0x3f, r0	; 63
    1b0e:	cd bf       	out	0x3d, r28	; 61

	//CS pin for micro SD card
	DDRA=0x1;
    1b10:	81 e0       	ldi	r24, 0x01	; 1
    1b12:	8a bb       	out	0x1a, r24	; 26
	//Create register to store time & date
	char CurrentTimeRegister[7];


	//Start Communications
	SPI_MAST_Init(0,128,0,0,0);
    1b14:	00 e0       	ldi	r16, 0x00	; 0
    1b16:	10 e0       	ldi	r17, 0x00	; 0
    1b18:	20 e0       	ldi	r18, 0x00	; 0
    1b1a:	30 e0       	ldi	r19, 0x00	; 0
    1b1c:	40 e0       	ldi	r20, 0x00	; 0
    1b1e:	50 e0       	ldi	r21, 0x00	; 0
    1b20:	60 e8       	ldi	r22, 0x80	; 128
    1b22:	70 e0       	ldi	r23, 0x00	; 0
    1b24:	80 e0       	ldi	r24, 0x00	; 0
    1b26:	90 e0       	ldi	r25, 0x00	; 0
    1b28:	0e 94 7e 01 	call	0x2fc	; 0x2fc <SPI_MAST_Init>
	USART_init(0,8,57600);
    1b2c:	20 e0       	ldi	r18, 0x00	; 0
    1b2e:	31 ee       	ldi	r19, 0xE1	; 225
    1b30:	40 e0       	ldi	r20, 0x00	; 0
    1b32:	50 e0       	ldi	r21, 0x00	; 0
    1b34:	68 e0       	ldi	r22, 0x08	; 8
    1b36:	70 e0       	ldi	r23, 0x00	; 0
    1b38:	80 e0       	ldi	r24, 0x00	; 0
    1b3a:	90 e0       	ldi	r25, 0x00	; 0
    1b3c:	0e 94 58 00 	call	0xb0	; 0xb0 <USART_init>
	I2C_Init();
    1b40:	0e 94 db 01 	call	0x3b6	; 0x3b6 <I2C_Init>
    SSD1306_Init(0,255);
    1b44:	6f ef       	ldi	r22, 0xFF	; 255
    1b46:	80 e0       	ldi	r24, 0x00	; 0
    1b48:	90 e0       	ldi	r25, 0x00	; 0
    1b4a:	0e 94 0c 0a 	call	0x1418	; 0x1418 <SSD1306_Init>

	

	//Initiate SD
	char SDIS =SD_Init();
    1b4e:	0e 94 45 04 	call	0x88a	; 0x88a <SD_Init>
    1b52:	18 2f       	mov	r17, r24


	// Send Status of SD boot up
	USART_Send("\r\nHello Void. I have awoken\r\n Response | ");
    1b54:	81 e7       	ldi	r24, 0x71	; 113
    1b56:	90 e0       	ldi	r25, 0x00	; 0
    1b58:	0e 94 1f 01 	call	0x23e	; 0x23e <USART_Send>
	USART_Int_Str(SDIS,0);
    1b5c:	60 e0       	ldi	r22, 0x00	; 0
    1b5e:	70 e0       	ldi	r23, 0x00	; 0
    1b60:	81 2f       	mov	r24, r17
    1b62:	90 e0       	ldi	r25, 0x00	; 0
    1b64:	0e 94 6e 01 	call	0x2dc	; 0x2dc <USART_Int_Str>
	USART_Send("\r\n");
    1b68:	8e ec       	ldi	r24, 0xCE	; 206
    1b6a:	90 e0       	ldi	r25, 0x00	; 0
    1b6c:	0e 94 1f 01 	call	0x23e	; 0x23e <USART_Send>





if(SDIS==5){
    1b70:	15 30       	cpi	r17, 0x05	; 5
    1b72:	a9 f4       	brne	.+42     	; 0x1b9e <main+0xa6>
		// Find Meta information about the FAT32

FAT32_Init(0);
    1b74:	80 e0       	ldi	r24, 0x00	; 0
    1b76:	0e 94 54 05 	call	0xaa8	; 0xaa8 <FAT32_Init>

SSD1306_Clear_Screen_Sector();
    1b7a:	0e 94 19 0b 	call	0x1632	; 0x1632 <SSD1306_Clear_Screen_Sector>
// 
while(1){
 SSD1306_Display_Time(0,0);
    1b7e:	60 e0       	ldi	r22, 0x00	; 0
    1b80:	80 e0       	ldi	r24, 0x00	; 0
    1b82:	0e 94 0e 0d 	call	0x1a1c	; 0x1a1c <SSD1306_Display_Time>
	#else
		//round up by default
		__ticks_dc = (uint32_t)(ceil(fabs(__tmp)));
	#endif

	__builtin_avr_delay_cycles(__ticks_dc);
    1b86:	2f ef       	ldi	r18, 0xFF	; 255
    1b88:	30 ee       	ldi	r19, 0xE0	; 224
    1b8a:	85 ef       	ldi	r24, 0xF5	; 245
    1b8c:	95 e0       	ldi	r25, 0x05	; 5
    1b8e:	21 50       	subi	r18, 0x01	; 1
    1b90:	30 40       	sbci	r19, 0x00	; 0
    1b92:	80 40       	sbci	r24, 0x00	; 0
    1b94:	90 40       	sbci	r25, 0x00	; 0
    1b96:	d9 f7       	brne	.-10     	; 0x1b8e <main+0x96>
    1b98:	00 c0       	rjmp	.+0      	; 0x1b9a <main+0xa2>
    1b9a:	00 00       	nop
    1b9c:	f0 cf       	rjmp	.-32     	; 0x1b7e <main+0x86>
	//Ending Block



	//Get time to update the CurrentTimeRegister
	RTC_Clock_Read(CurrentTimeRegister);
    1b9e:	ce 01       	movw	r24, r28
    1ba0:	01 96       	adiw	r24, 0x01	; 1
    1ba2:	0e 94 65 02 	call	0x4ca	; 0x4ca <RTC_Clock_Read>
	RTC_Calendar_Read(CurrentTimeRegister);
    1ba6:	ce 01       	movw	r24, r28
    1ba8:	01 96       	adiw	r24, 0x01	; 1
    1baa:	0e 94 d1 02 	call	0x5a2	; 0x5a2 <RTC_Calendar_Read>
	USART_Send("\r\n Completed At: ");
    1bae:	8b e9       	ldi	r24, 0x9B	; 155
    1bb0:	90 e0       	ldi	r25, 0x00	; 0
    1bb2:	0e 94 1f 01 	call	0x23e	; 0x23e <USART_Send>


	//Send ending execution time

	USART_Send("\r\n Day =");
    1bb6:	8d ea       	ldi	r24, 0xAD	; 173
    1bb8:	90 e0       	ldi	r25, 0x00	; 0
    1bba:	0e 94 1f 01 	call	0x23e	; 0x23e <USART_Send>
	USART_Int_Str(CurrentTimeRegister[4],0);
    1bbe:	8d 81       	ldd	r24, Y+5	; 0x05
    1bc0:	60 e0       	ldi	r22, 0x00	; 0
    1bc2:	70 e0       	ldi	r23, 0x00	; 0
    1bc4:	90 e0       	ldi	r25, 0x00	; 0
    1bc6:	0e 94 6e 01 	call	0x2dc	; 0x2dc <USART_Int_Str>
	USART_Send("\r\n Date =");
    1bca:	86 eb       	ldi	r24, 0xB6	; 182
    1bcc:	90 e0       	ldi	r25, 0x00	; 0
    1bce:	0e 94 1f 01 	call	0x23e	; 0x23e <USART_Send>
	USART_Int_Str(CurrentTimeRegister[6],0);
    1bd2:	8f 81       	ldd	r24, Y+7	; 0x07
    1bd4:	60 e0       	ldi	r22, 0x00	; 0
    1bd6:	70 e0       	ldi	r23, 0x00	; 0
    1bd8:	90 e0       	ldi	r25, 0x00	; 0
    1bda:	0e 94 6e 01 	call	0x2dc	; 0x2dc <USART_Int_Str>
	USART_Send("/");
    1bde:	8f e6       	ldi	r24, 0x6F	; 111
    1be0:	90 e0       	ldi	r25, 0x00	; 0
    1be2:	0e 94 1f 01 	call	0x23e	; 0x23e <USART_Send>
	USART_Int_Str(CurrentTimeRegister[5],0);
    1be6:	8e 81       	ldd	r24, Y+6	; 0x06
    1be8:	60 e0       	ldi	r22, 0x00	; 0
    1bea:	70 e0       	ldi	r23, 0x00	; 0
    1bec:	90 e0       	ldi	r25, 0x00	; 0
    1bee:	0e 94 6e 01 	call	0x2dc	; 0x2dc <USART_Int_Str>
	USART_Send("/");
    1bf2:	8f e6       	ldi	r24, 0x6F	; 111
    1bf4:	90 e0       	ldi	r25, 0x00	; 0
    1bf6:	0e 94 1f 01 	call	0x23e	; 0x23e <USART_Send>
	USART_Int_Str(CurrentTimeRegister[7],0);
    1bfa:	88 85       	ldd	r24, Y+8	; 0x08
    1bfc:	60 e0       	ldi	r22, 0x00	; 0
    1bfe:	70 e0       	ldi	r23, 0x00	; 0
    1c00:	90 e0       	ldi	r25, 0x00	; 0
    1c02:	0e 94 6e 01 	call	0x2dc	; 0x2dc <USART_Int_Str>
	USART_Send("\r\n Time =");
    1c06:	80 ec       	ldi	r24, 0xC0	; 192
    1c08:	90 e0       	ldi	r25, 0x00	; 0
    1c0a:	0e 94 1f 01 	call	0x23e	; 0x23e <USART_Send>
	USART_Int_Str(CurrentTimeRegister[2],0);
    1c0e:	8b 81       	ldd	r24, Y+3	; 0x03
    1c10:	60 e0       	ldi	r22, 0x00	; 0
    1c12:	70 e0       	ldi	r23, 0x00	; 0
    1c14:	90 e0       	ldi	r25, 0x00	; 0
    1c16:	0e 94 6e 01 	call	0x2dc	; 0x2dc <USART_Int_Str>
	USART_Send(":");
    1c1a:	8d e6       	ldi	r24, 0x6D	; 109
    1c1c:	90 e0       	ldi	r25, 0x00	; 0
    1c1e:	0e 94 1f 01 	call	0x23e	; 0x23e <USART_Send>
	USART_Int_Str(CurrentTimeRegister[1],0);
    1c22:	8a 81       	ldd	r24, Y+2	; 0x02
    1c24:	60 e0       	ldi	r22, 0x00	; 0
    1c26:	70 e0       	ldi	r23, 0x00	; 0
    1c28:	90 e0       	ldi	r25, 0x00	; 0
    1c2a:	0e 94 6e 01 	call	0x2dc	; 0x2dc <USART_Int_Str>
	USART_Send(":");
    1c2e:	8d e6       	ldi	r24, 0x6D	; 109
    1c30:	90 e0       	ldi	r25, 0x00	; 0
    1c32:	0e 94 1f 01 	call	0x23e	; 0x23e <USART_Send>
	USART_Int_Str(CurrentTimeRegister[0],0);
    1c36:	89 81       	ldd	r24, Y+1	; 0x01
    1c38:	60 e0       	ldi	r22, 0x00	; 0
    1c3a:	70 e0       	ldi	r23, 0x00	; 0
    1c3c:	90 e0       	ldi	r25, 0x00	; 0
    1c3e:	0e 94 6e 01 	call	0x2dc	; 0x2dc <USART_Int_Str>
	USART_Send("\r\n\r\n\r\n");
    1c42:	8a ec       	ldi	r24, 0xCA	; 202
    1c44:	90 e0       	ldi	r25, 0x00	; 0
    1c46:	0e 94 1f 01 	call	0x23e	; 0x23e <USART_Send>

    1c4a:	80 e0       	ldi	r24, 0x00	; 0
    1c4c:	90 e0       	ldi	r25, 0x00	; 0
    1c4e:	27 96       	adiw	r28, 0x07	; 7
    1c50:	0f b6       	in	r0, 0x3f	; 63
    1c52:	f8 94       	cli
    1c54:	de bf       	out	0x3e, r29	; 62
    1c56:	0f be       	out	0x3f, r0	; 63
    1c58:	cd bf       	out	0x3d, r28	; 61
    1c5a:	df 91       	pop	r29
    1c5c:	cf 91       	pop	r28
    1c5e:	1f 91       	pop	r17
    1c60:	0f 91       	pop	r16
    1c62:	08 95       	ret

00001c64 <__udivmodsi4>:
    1c64:	a1 e2       	ldi	r26, 0x21	; 33
    1c66:	1a 2e       	mov	r1, r26
    1c68:	aa 1b       	sub	r26, r26
    1c6a:	bb 1b       	sub	r27, r27
    1c6c:	fd 01       	movw	r30, r26
    1c6e:	0d c0       	rjmp	.+26     	; 0x1c8a <__udivmodsi4_ep>

00001c70 <__udivmodsi4_loop>:
    1c70:	aa 1f       	adc	r26, r26
    1c72:	bb 1f       	adc	r27, r27
    1c74:	ee 1f       	adc	r30, r30
    1c76:	ff 1f       	adc	r31, r31
    1c78:	a2 17       	cp	r26, r18
    1c7a:	b3 07       	cpc	r27, r19
    1c7c:	e4 07       	cpc	r30, r20
    1c7e:	f5 07       	cpc	r31, r21
    1c80:	20 f0       	brcs	.+8      	; 0x1c8a <__udivmodsi4_ep>
    1c82:	a2 1b       	sub	r26, r18
    1c84:	b3 0b       	sbc	r27, r19
    1c86:	e4 0b       	sbc	r30, r20
    1c88:	f5 0b       	sbc	r31, r21

00001c8a <__udivmodsi4_ep>:
    1c8a:	66 1f       	adc	r22, r22
    1c8c:	77 1f       	adc	r23, r23
    1c8e:	88 1f       	adc	r24, r24
    1c90:	99 1f       	adc	r25, r25
    1c92:	1a 94       	dec	r1
    1c94:	69 f7       	brne	.-38     	; 0x1c70 <__udivmodsi4_loop>
    1c96:	60 95       	com	r22
    1c98:	70 95       	com	r23
    1c9a:	80 95       	com	r24
    1c9c:	90 95       	com	r25
    1c9e:	9b 01       	movw	r18, r22
    1ca0:	ac 01       	movw	r20, r24
    1ca2:	bd 01       	movw	r22, r26
    1ca4:	cf 01       	movw	r24, r30
    1ca6:	08 95       	ret

00001ca8 <__muluhisi3>:
    1ca8:	0e 94 5f 0e 	call	0x1cbe	; 0x1cbe <__umulhisi3>
    1cac:	a5 9f       	mul	r26, r21
    1cae:	90 0d       	add	r25, r0
    1cb0:	b4 9f       	mul	r27, r20
    1cb2:	90 0d       	add	r25, r0
    1cb4:	a4 9f       	mul	r26, r20
    1cb6:	80 0d       	add	r24, r0
    1cb8:	91 1d       	adc	r25, r1
    1cba:	11 24       	eor	r1, r1
    1cbc:	08 95       	ret

00001cbe <__umulhisi3>:
    1cbe:	a2 9f       	mul	r26, r18
    1cc0:	b0 01       	movw	r22, r0
    1cc2:	b3 9f       	mul	r27, r19
    1cc4:	c0 01       	movw	r24, r0
    1cc6:	a3 9f       	mul	r26, r19
    1cc8:	70 0d       	add	r23, r0
    1cca:	81 1d       	adc	r24, r1
    1ccc:	11 24       	eor	r1, r1
    1cce:	91 1d       	adc	r25, r1
    1cd0:	b2 9f       	mul	r27, r18
    1cd2:	70 0d       	add	r23, r0
    1cd4:	81 1d       	adc	r24, r1
    1cd6:	11 24       	eor	r1, r1
    1cd8:	91 1d       	adc	r25, r1
    1cda:	08 95       	ret

00001cdc <memset>:
    1cdc:	dc 01       	movw	r26, r24
    1cde:	01 c0       	rjmp	.+2      	; 0x1ce2 <memset+0x6>
    1ce0:	6d 93       	st	X+, r22
    1ce2:	41 50       	subi	r20, 0x01	; 1
    1ce4:	50 40       	sbci	r21, 0x00	; 0
    1ce6:	e0 f7       	brcc	.-8      	; 0x1ce0 <memset+0x4>
    1ce8:	08 95       	ret

00001cea <__itoa_ncheck>:
    1cea:	bb 27       	eor	r27, r27
    1cec:	4a 30       	cpi	r20, 0x0A	; 10
    1cee:	31 f4       	brne	.+12     	; 0x1cfc <__itoa_ncheck+0x12>
    1cf0:	99 23       	and	r25, r25
    1cf2:	22 f4       	brpl	.+8      	; 0x1cfc <__itoa_ncheck+0x12>
    1cf4:	bd e2       	ldi	r27, 0x2D	; 45
    1cf6:	90 95       	com	r25
    1cf8:	81 95       	neg	r24
    1cfa:	9f 4f       	sbci	r25, 0xFF	; 255
    1cfc:	0c 94 bd 0e 	jmp	0x1d7a	; 0x1d7a <__utoa_common>

00001d00 <ltoa>:
    1d00:	25 32       	cpi	r18, 0x25	; 37
    1d02:	31 05       	cpc	r19, r1
    1d04:	20 f4       	brcc	.+8      	; 0x1d0e <ltoa+0xe>
    1d06:	22 30       	cpi	r18, 0x02	; 2
    1d08:	10 f0       	brcs	.+4      	; 0x1d0e <ltoa+0xe>
    1d0a:	0c 94 8b 0e 	jmp	0x1d16	; 0x1d16 <__ltoa_ncheck>
    1d0e:	fa 01       	movw	r30, r20
    1d10:	10 82       	st	Z, r1
    1d12:	ca 01       	movw	r24, r20
    1d14:	08 95       	ret

00001d16 <__ltoa_ncheck>:
    1d16:	bb 27       	eor	r27, r27
    1d18:	2a 30       	cpi	r18, 0x0A	; 10
    1d1a:	51 f4       	brne	.+20     	; 0x1d30 <__ltoa_ncheck+0x1a>
    1d1c:	99 23       	and	r25, r25
    1d1e:	42 f4       	brpl	.+16     	; 0x1d30 <__ltoa_ncheck+0x1a>
    1d20:	bd e2       	ldi	r27, 0x2D	; 45
    1d22:	90 95       	com	r25
    1d24:	80 95       	com	r24
    1d26:	70 95       	com	r23
    1d28:	61 95       	neg	r22
    1d2a:	7f 4f       	sbci	r23, 0xFF	; 255
    1d2c:	8f 4f       	sbci	r24, 0xFF	; 255
    1d2e:	9f 4f       	sbci	r25, 0xFF	; 255
    1d30:	0c 94 9b 0e 	jmp	0x1d36	; 0x1d36 <__ultoa_common>

00001d34 <__ultoa_ncheck>:
    1d34:	bb 27       	eor	r27, r27

00001d36 <__ultoa_common>:
    1d36:	fa 01       	movw	r30, r20
    1d38:	a6 2f       	mov	r26, r22
    1d3a:	62 17       	cp	r22, r18
    1d3c:	71 05       	cpc	r23, r1
    1d3e:	81 05       	cpc	r24, r1
    1d40:	91 05       	cpc	r25, r1
    1d42:	33 0b       	sbc	r19, r19
    1d44:	30 fb       	bst	r19, 0
    1d46:	66 f0       	brts	.+24     	; 0x1d60 <__ultoa_common+0x2a>
    1d48:	aa 27       	eor	r26, r26
    1d4a:	66 0f       	add	r22, r22
    1d4c:	77 1f       	adc	r23, r23
    1d4e:	88 1f       	adc	r24, r24
    1d50:	99 1f       	adc	r25, r25
    1d52:	aa 1f       	adc	r26, r26
    1d54:	a2 17       	cp	r26, r18
    1d56:	10 f0       	brcs	.+4      	; 0x1d5c <__ultoa_common+0x26>
    1d58:	a2 1b       	sub	r26, r18
    1d5a:	63 95       	inc	r22
    1d5c:	38 50       	subi	r19, 0x08	; 8
    1d5e:	a9 f7       	brne	.-22     	; 0x1d4a <__ultoa_common+0x14>
    1d60:	a0 5d       	subi	r26, 0xD0	; 208
    1d62:	aa 33       	cpi	r26, 0x3A	; 58
    1d64:	08 f0       	brcs	.+2      	; 0x1d68 <__ultoa_common+0x32>
    1d66:	a9 5d       	subi	r26, 0xD9	; 217
    1d68:	a1 93       	st	Z+, r26
    1d6a:	36 f7       	brtc	.-52     	; 0x1d38 <__ultoa_common+0x2>
    1d6c:	b1 11       	cpse	r27, r1
    1d6e:	b1 93       	st	Z+, r27
    1d70:	10 82       	st	Z, r1
    1d72:	ca 01       	movw	r24, r20
    1d74:	0c 94 d6 0e 	jmp	0x1dac	; 0x1dac <strrev>

00001d78 <__utoa_ncheck>:
    1d78:	bb 27       	eor	r27, r27

00001d7a <__utoa_common>:
    1d7a:	fb 01       	movw	r30, r22
    1d7c:	55 27       	eor	r21, r21
    1d7e:	aa 27       	eor	r26, r26
    1d80:	88 0f       	add	r24, r24
    1d82:	99 1f       	adc	r25, r25
    1d84:	aa 1f       	adc	r26, r26
    1d86:	a4 17       	cp	r26, r20
    1d88:	10 f0       	brcs	.+4      	; 0x1d8e <__utoa_common+0x14>
    1d8a:	a4 1b       	sub	r26, r20
    1d8c:	83 95       	inc	r24
    1d8e:	50 51       	subi	r21, 0x10	; 16
    1d90:	b9 f7       	brne	.-18     	; 0x1d80 <__utoa_common+0x6>
    1d92:	a0 5d       	subi	r26, 0xD0	; 208
    1d94:	aa 33       	cpi	r26, 0x3A	; 58
    1d96:	08 f0       	brcs	.+2      	; 0x1d9a <__utoa_common+0x20>
    1d98:	a9 5d       	subi	r26, 0xD9	; 217
    1d9a:	a1 93       	st	Z+, r26
    1d9c:	00 97       	sbiw	r24, 0x00	; 0
    1d9e:	79 f7       	brne	.-34     	; 0x1d7e <__utoa_common+0x4>
    1da0:	b1 11       	cpse	r27, r1
    1da2:	b1 93       	st	Z+, r27
    1da4:	11 92       	st	Z+, r1
    1da6:	cb 01       	movw	r24, r22
    1da8:	0c 94 d6 0e 	jmp	0x1dac	; 0x1dac <strrev>

00001dac <strrev>:
    1dac:	dc 01       	movw	r26, r24
    1dae:	fc 01       	movw	r30, r24
    1db0:	67 2f       	mov	r22, r23
    1db2:	71 91       	ld	r23, Z+
    1db4:	77 23       	and	r23, r23
    1db6:	e1 f7       	brne	.-8      	; 0x1db0 <strrev+0x4>
    1db8:	32 97       	sbiw	r30, 0x02	; 2
    1dba:	04 c0       	rjmp	.+8      	; 0x1dc4 <strrev+0x18>
    1dbc:	7c 91       	ld	r23, X
    1dbe:	6d 93       	st	X+, r22
    1dc0:	70 83       	st	Z, r23
    1dc2:	62 91       	ld	r22, -Z
    1dc4:	ae 17       	cp	r26, r30
    1dc6:	bf 07       	cpc	r27, r31
    1dc8:	c8 f3       	brcs	.-14     	; 0x1dbc <strrev+0x10>
    1dca:	08 95       	ret

00001dcc <_exit>:
    1dcc:	f8 94       	cli

00001dce <__stop_program>:
    1dce:	ff cf       	rjmp	.-2      	; 0x1dce <__stop_program>
